

Microchip MPLAB XC8 Assembler V2.41 build 20230208172133 
                                                                                               Sun Jul 16 17:25:31 2023

Microchip MPLAB XC8 C Compiler v2.41 (Free license) build 20230208172133 Og1 
     1                           	processor	16F18854
     2                           	pagewidth 120
     3                           	opt	flic
     4                           	psect	idataBANK0,global,class=CODE,delta=2,noexec
     5                           	psect	stringtext1,global,class=STRCODE,delta=2,noexec
     6                           	psect	nvBANK0,global,class=BANK0,space=1,delta=1,noexec
     7                           	psect	cinit,global,class=CODE,merge=1,delta=2
     8                           	psect	bssCOMMON,global,class=COMMON,space=1,delta=1,noexec
     9                           	psect	bssBANK0,global,class=BANK0,space=1,delta=1,noexec
    10                           	psect	dataBANK0,global,class=BANK0,space=1,delta=1,noexec
    11                           	psect	cstackCOMMON,global,class=COMMON,space=1,delta=1,noexec
    12                           	psect	cstackBANK0,global,class=BANK0,space=1,delta=1,noexec
    13                           	psect	maintext,global,class=CODE,merge=1,split=1,delta=2
    14                           	psect	text1,local,class=CODE,merge=1,delta=2
    15                           	psect	text2,local,class=CODE,merge=1,delta=2,group=1
    16                           	psect	text3,local,class=CODE,merge=1,delta=2,group=1
    17                           	psect	text4,local,class=CODE,merge=1,delta=2,group=1
    18                           	psect	text5,local,class=CODE,merge=1,delta=2,group=1
    19                           	psect	text6,local,class=CODE,merge=1,delta=2,group=1
    20                           	psect	intentry,global,class=CODE,delta=2
    21                           	psect	text8,local,class=CODE,merge=1,delta=2
    22                           	psect	config,global,abs,ovrld,class=CONFIG,space=4,delta=2,noexec
    23                           	dabs	1,0x7E,2
    24     0000                     
    25                           ; Generated 21/06/2023 GMT
    26                           ; 
    27                           ; Copyright © 2023, Microchip Technology Inc. and its subsidiaries ("Microchip")
    28                           ; All rights reserved.
    29                           ; 
    30                           ; This software is developed by Microchip Technology Inc. and its subsidiaries ("Microch
      +                          ip").
    31                           ; 
    32                           ; Redistribution and use in source and binary forms, with or without modification, are
    33                           ; permitted provided that the following conditions are met:
    34                           ; 
    35                           ;     1. Redistributions of source code must retain the above copyright notice, this lis
      +                          t of
    36                           ;        conditions and the following disclaimer.
    37                           ; 
    38                           ;     2. Redistributions in binary form must reproduce the above copyright notice, this 
      +                          list
    39                           ;        of conditions and the following disclaimer in the documentation and/or other
    40                           ;        materials provided with the distribution. Publication is not required when
    41                           ;        this file is used in an embedded application.
    42                           ; 
    43                           ;     3. Microchip's name may not be used to endorse or promote products derived from th
      +                          is
    44                           ;        software without specific prior written permission.
    45                           ; 
    46                           ; THIS SOFTWARE IS PROVIDED BY MICROCHIP "AS IS" AND ANY EXPRESS OR IMPLIED WARRANTIES,
    47                           ; INCLUDING, BUT NOT LIMITED TO, THE IMPLIED WARRANTIES OF MERCHANTABILITY AND FITNESS F
      +                          OR
    48                           ; PURPOSE ARE DISCLAIMED.  IN NO EVENT SHALL MICROCHIP BE LIABLE FOR ANY DIRECT, INDIREC
      +                          T,
    49                           ; INCIDENTAL, SPECIAL, EXEMPLARY, OR CONSEQUENTIAL DAMAGES (INCLUDING BUT NOT LIMITED TO
    50                           ; PROCUREMENT OF SUBSTITUTE GOODS OR SERVICES; LOSS OF USE, DATA OR PROFITS; OR BUSINESS
    51                           ; INTERRUPTION) HOWSOEVER CAUSED AND ON ANY THEORY OF LIABILITY, WHETHER IN CONTRACT, ST
      +                          RICT
    52                           ; LIABILITY, OR TORT (INCLUDING NEGLIGENCE OR OTHERWISE) ARISING IN ANY WAY OUT OF THE U
      +                          SE OF
    53                           ; THIS SOFTWARE, EVEN IF ADVISED OF THE POSSIBILITY OF SUCH DAMAGE.
    54                           ; 
    55                           ; 
    56                           ; Code-generator required, PIC16F18854 Definitions
    57                           ; 
    58                           ; SFR Addresses
    59     0000                     	;# 
    60     0001                     	;# 
    61     0002                     	;# 
    62     0003                     	;# 
    63     0004                     	;# 
    64     0005                     	;# 
    65     0006                     	;# 
    66     0007                     	;# 
    67     0008                     	;# 
    68     0009                     	;# 
    69     000A                     	;# 
    70     000B                     	;# 
    71     000C                     	;# 
    72     000D                     	;# 
    73     000E                     	;# 
    74     0010                     	;# 
    75     0011                     	;# 
    76     0012                     	;# 
    77     0013                     	;# 
    78     0016                     	;# 
    79     0017                     	;# 
    80     0018                     	;# 
    81     001C                     	;# 
    82     001C                     	;# 
    83     001D                     	;# 
    84     001D                     	;# 
    85     001E                     	;# 
    86     001F                     	;# 
    87     008C                     	;# 
    88     008C                     	;# 
    89     008D                     	;# 
    90     008E                     	;# 
    91     008E                     	;# 
    92     008F                     	;# 
    93     0090                     	;# 
    94     0090                     	;# 
    95     0091                     	;# 
    96     0093                     	;# 
    97     0094                     	;# 
    98     0095                     	;# 
    99     0096                     	;# 
   100     0097                     	;# 
   101     0098                     	;# 
   102     0099                     	;# 
   103     009A                     	;# 
   104     009B                     	;# 
   105     009C                     	;# 
   106     009D                     	;# 
   107     009E                     	;# 
   108     010C                     	;# 
   109     010D                     	;# 
   110     010E                     	;# 
   111     010E                     	;# 
   112     010F                     	;# 
   113     0110                     	;# 
   114     0110                     	;# 
   115     0111                     	;# 
   116     0112                     	;# 
   117     0112                     	;# 
   118     0113                     	;# 
   119     0114                     	;# 
   120     0114                     	;# 
   121     0115                     	;# 
   122     0116                     	;# 
   123     0116                     	;# 
   124     0117                     	;# 
   125     0119                     	;# 
   126     0119                     	;# 
   127     0119                     	;# 
   128     011A                     	;# 
   129     011A                     	;# 
   130     011A                     	;# 
   131     011B                     	;# 
   132     011B                     	;# 
   133     011B                     	;# 
   134     011B                     	;# 
   135     011B                     	;# 
   136     011C                     	;# 
   137     011C                     	;# 
   138     011C                     	;# 
   139     011D                     	;# 
   140     011D                     	;# 
   141     011D                     	;# 
   142     011E                     	;# 
   143     011E                     	;# 
   144     011E                     	;# 
   145     011F                     	;# 
   146     011F                     	;# 
   147     011F                     	;# 
   148     011F                     	;# 
   149     011F                     	;# 
   150     018C                     	;# 
   151     018D                     	;# 
   152     018E                     	;# 
   153     018F                     	;# 
   154     0190                     	;# 
   155     0191                     	;# 
   156     0192                     	;# 
   157     0196                     	;# 
   158     0197                     	;# 
   159     0198                     	;# 
   160     0199                     	;# 
   161     019A                     	;# 
   162     019B                     	;# 
   163     019C                     	;# 
   164     020C                     	;# 
   165     020C                     	;# 
   166     020D                     	;# 
   167     020E                     	;# 
   168     020F                     	;# 
   169     020F                     	;# 
   170     0210                     	;# 
   171     0210                     	;# 
   172     0211                     	;# 
   173     0211                     	;# 
   174     0212                     	;# 
   175     0212                     	;# 
   176     0213                     	;# 
   177     0214                     	;# 
   178     0215                     	;# 
   179     0215                     	;# 
   180     0216                     	;# 
   181     0216                     	;# 
   182     0217                     	;# 
   183     0217                     	;# 
   184     0218                     	;# 
   185     0218                     	;# 
   186     0219                     	;# 
   187     021A                     	;# 
   188     021B                     	;# 
   189     021B                     	;# 
   190     021C                     	;# 
   191     021C                     	;# 
   192     021D                     	;# 
   193     021D                     	;# 
   194     021E                     	;# 
   195     021F                     	;# 
   196     028C                     	;# 
   197     028C                     	;# 
   198     028D                     	;# 
   199     028D                     	;# 
   200     028E                     	;# 
   201     028F                     	;# 
   202     0290                     	;# 
   203     0290                     	;# 
   204     0291                     	;# 
   205     0292                     	;# 
   206     0292                     	;# 
   207     0293                     	;# 
   208     0293                     	;# 
   209     0294                     	;# 
   210     0295                     	;# 
   211     0296                     	;# 
   212     0296                     	;# 
   213     0297                     	;# 
   214     0298                     	;# 
   215     0298                     	;# 
   216     0299                     	;# 
   217     0299                     	;# 
   218     029A                     	;# 
   219     029B                     	;# 
   220     029C                     	;# 
   221     029C                     	;# 
   222     029D                     	;# 
   223     030C                     	;# 
   224     030C                     	;# 
   225     030D                     	;# 
   226     030E                     	;# 
   227     030F                     	;# 
   228     0310                     	;# 
   229     0310                     	;# 
   230     0311                     	;# 
   231     0312                     	;# 
   232     0313                     	;# 
   233     0314                     	;# 
   234     0314                     	;# 
   235     0315                     	;# 
   236     0316                     	;# 
   237     0317                     	;# 
   238     0318                     	;# 
   239     0318                     	;# 
   240     0319                     	;# 
   241     031A                     	;# 
   242     031B                     	;# 
   243     031C                     	;# 
   244     031C                     	;# 
   245     031D                     	;# 
   246     031E                     	;# 
   247     031F                     	;# 
   248     038C                     	;# 
   249     038C                     	;# 
   250     038D                     	;# 
   251     038E                     	;# 
   252     0390                     	;# 
   253     0390                     	;# 
   254     0391                     	;# 
   255     0392                     	;# 
   256     040C                     	;# 
   257     040D                     	;# 
   258     040E                     	;# 
   259     040F                     	;# 
   260     0410                     	;# 
   261     0411                     	;# 
   262     0416                     	;# 
   263     0416                     	;# 
   264     0417                     	;# 
   265     0418                     	;# 
   266     0418                     	;# 
   267     0419                     	;# 
   268     041A                     	;# 
   269     041A                     	;# 
   270     041B                     	;# 
   271     041C                     	;# 
   272     041C                     	;# 
   273     041D                     	;# 
   274     041E                     	;# 
   275     041F                     	;# 
   276     048C                     	;# 
   277     048C                     	;# 
   278     048D                     	;# 
   279     048E                     	;# 
   280     048F                     	;# 
   281     048F                     	;# 
   282     0490                     	;# 
   283     0491                     	;# 
   284     0492                     	;# 
   285     0492                     	;# 
   286     0493                     	;# 
   287     0494                     	;# 
   288     0495                     	;# 
   289     0495                     	;# 
   290     0496                     	;# 
   291     0497                     	;# 
   292     0498                     	;# 
   293     0499                     	;# 
   294     049A                     	;# 
   295     049B                     	;# 
   296     049C                     	;# 
   297     049D                     	;# 
   298     050C                     	;# 
   299     050C                     	;# 
   300     050D                     	;# 
   301     050E                     	;# 
   302     050F                     	;# 
   303     050F                     	;# 
   304     0510                     	;# 
   305     0511                     	;# 
   306     0512                     	;# 
   307     0512                     	;# 
   308     0513                     	;# 
   309     0514                     	;# 
   310     0515                     	;# 
   311     0515                     	;# 
   312     0516                     	;# 
   313     0517                     	;# 
   314     0518                     	;# 
   315     0519                     	;# 
   316     051A                     	;# 
   317     051B                     	;# 
   318     051C                     	;# 
   319     051D                     	;# 
   320     058C                     	;# 
   321     058C                     	;# 
   322     058D                     	;# 
   323     058E                     	;# 
   324     058F                     	;# 
   325     058F                     	;# 
   326     0590                     	;# 
   327     0591                     	;# 
   328     0592                     	;# 
   329     0593                     	;# 
   330     060C                     	;# 
   331     060D                     	;# 
   332     060E                     	;# 
   333     060F                     	;# 
   334     0610                     	;# 
   335     0611                     	;# 
   336     0612                     	;# 
   337     0613                     	;# 
   338     0614                     	;# 
   339     0616                     	;# 
   340     0617                     	;# 
   341     0618                     	;# 
   342     0619                     	;# 
   343     061A                     	;# 
   344     061B                     	;# 
   345     061C                     	;# 
   346     061D                     	;# 
   347     061E                     	;# 
   348     068C                     	;# 
   349     068D                     	;# 
   350     068E                     	;# 
   351     068F                     	;# 
   352     0690                     	;# 
   353     0691                     	;# 
   354     0692                     	;# 
   355     0693                     	;# 
   356     0694                     	;# 
   357     070C                     	;# 
   358     070D                     	;# 
   359     070E                     	;# 
   360     070F                     	;# 
   361     0710                     	;# 
   362     0711                     	;# 
   363     0712                     	;# 
   364     0713                     	;# 
   365     0714                     	;# 
   366     0716                     	;# 
   367     0717                     	;# 
   368     0718                     	;# 
   369     0719                     	;# 
   370     071A                     	;# 
   371     071B                     	;# 
   372     071C                     	;# 
   373     071D                     	;# 
   374     071E                     	;# 
   375     0796                     	;# 
   376     0797                     	;# 
   377     0798                     	;# 
   378     0799                     	;# 
   379     079A                     	;# 
   380     079B                     	;# 
   381     080C                     	;# 
   382     080D                     	;# 
   383     080E                     	;# 
   384     080F                     	;# 
   385     0810                     	;# 
   386     0811                     	;# 
   387     0812                     	;# 
   388     0813                     	;# 
   389     0814                     	;# 
   390     081A                     	;# 
   391     081B                     	;# 
   392     081C                     	;# 
   393     081D                     	;# 
   394     081E                     	;# 
   395     081F                     	;# 
   396     088C                     	;# 
   397     088D                     	;# 
   398     088E                     	;# 
   399     088F                     	;# 
   400     0890                     	;# 
   401     0891                     	;# 
   402     0892                     	;# 
   403     0893                     	;# 
   404     0895                     	;# 
   405     0896                     	;# 
   406     0897                     	;# 
   407     0898                     	;# 
   408     0899                     	;# 
   409     089A                     	;# 
   410     089B                     	;# 
   411     090C                     	;# 
   412     090E                     	;# 
   413     090F                     	;# 
   414     091F                     	;# 
   415     098F                     	;# 
   416     098F                     	;# 
   417     0990                     	;# 
   418     0991                     	;# 
   419     0992                     	;# 
   420     0993                     	;# 
   421     0994                     	;# 
   422     0995                     	;# 
   423     0996                     	;# 
   424     0997                     	;# 
   425     0E0F                     	;# 
   426     0E10                     	;# 
   427     0E11                     	;# 
   428     0E12                     	;# 
   429     0E13                     	;# 
   430     0E14                     	;# 
   431     0E15                     	;# 
   432     0E16                     	;# 
   433     0E17                     	;# 
   434     0E18                     	;# 
   435     0E19                     	;# 
   436     0E1A                     	;# 
   437     0E1B                     	;# 
   438     0E1C                     	;# 
   439     0E1D                     	;# 
   440     0E1E                     	;# 
   441     0E1F                     	;# 
   442     0E20                     	;# 
   443     0E21                     	;# 
   444     0E22                     	;# 
   445     0E23                     	;# 
   446     0E24                     	;# 
   447     0E25                     	;# 
   448     0E26                     	;# 
   449     0E27                     	;# 
   450     0E28                     	;# 
   451     0E29                     	;# 
   452     0E2A                     	;# 
   453     0E2B                     	;# 
   454     0E2C                     	;# 
   455     0E2D                     	;# 
   456     0E2E                     	;# 
   457     0E2F                     	;# 
   458     0E30                     	;# 
   459     0E31                     	;# 
   460     0E32                     	;# 
   461     0E33                     	;# 
   462     0E34                     	;# 
   463     0E35                     	;# 
   464     0E36                     	;# 
   465     0E37                     	;# 
   466     0E8F                     	;# 
   467     0E90                     	;# 
   468     0E91                     	;# 
   469     0E92                     	;# 
   470     0E93                     	;# 
   471     0E94                     	;# 
   472     0E95                     	;# 
   473     0E96                     	;# 
   474     0E97                     	;# 
   475     0E9C                     	;# 
   476     0E9D                     	;# 
   477     0E9E                     	;# 
   478     0EA1                     	;# 
   479     0EA2                     	;# 
   480     0EA3                     	;# 
   481     0EA4                     	;# 
   482     0EA5                     	;# 
   483     0EA9                     	;# 
   484     0EAA                     	;# 
   485     0EAB                     	;# 
   486     0EAC                     	;# 
   487     0EB1                     	;# 
   488     0EB2                     	;# 
   489     0EB3                     	;# 
   490     0EB8                     	;# 
   491     0EB9                     	;# 
   492     0EBA                     	;# 
   493     0EBB                     	;# 
   494     0EBC                     	;# 
   495     0EBD                     	;# 
   496     0EBE                     	;# 
   497     0EC3                     	;# 
   498     0EC5                     	;# 
   499     0EC6                     	;# 
   500     0EC7                     	;# 
   501     0EC8                     	;# 
   502     0EC9                     	;# 
   503     0ECA                     	;# 
   504     0ECB                     	;# 
   505     0ECC                     	;# 
   506     0F10                     	;# 
   507     0F11                     	;# 
   508     0F12                     	;# 
   509     0F13                     	;# 
   510     0F14                     	;# 
   511     0F15                     	;# 
   512     0F16                     	;# 
   513     0F17                     	;# 
   514     0F18                     	;# 
   515     0F19                     	;# 
   516     0F1A                     	;# 
   517     0F1B                     	;# 
   518     0F1C                     	;# 
   519     0F1D                     	;# 
   520     0F1E                     	;# 
   521     0F1F                     	;# 
   522     0F20                     	;# 
   523     0F21                     	;# 
   524     0F22                     	;# 
   525     0F23                     	;# 
   526     0F24                     	;# 
   527     0F25                     	;# 
   528     0F26                     	;# 
   529     0F27                     	;# 
   530     0F38                     	;# 
   531     0F39                     	;# 
   532     0F3A                     	;# 
   533     0F3B                     	;# 
   534     0F3C                     	;# 
   535     0F3D                     	;# 
   536     0F3E                     	;# 
   537     0F3F                     	;# 
   538     0F40                     	;# 
   539     0F41                     	;# 
   540     0F43                     	;# 
   541     0F44                     	;# 
   542     0F45                     	;# 
   543     0F46                     	;# 
   544     0F47                     	;# 
   545     0F48                     	;# 
   546     0F49                     	;# 
   547     0F4A                     	;# 
   548     0F4B                     	;# 
   549     0F4C                     	;# 
   550     0F4E                     	;# 
   551     0F4F                     	;# 
   552     0F50                     	;# 
   553     0F51                     	;# 
   554     0F52                     	;# 
   555     0F53                     	;# 
   556     0F54                     	;# 
   557     0F55                     	;# 
   558     0F56                     	;# 
   559     0F57                     	;# 
   560     0F65                     	;# 
   561     0F68                     	;# 
   562     0F69                     	;# 
   563     0F6A                     	;# 
   564     0F6B                     	;# 
   565     0FE4                     	;# 
   566     0FE5                     	;# 
   567     0FE6                     	;# 
   568     0FE7                     	;# 
   569     0FE8                     	;# 
   570     0FE9                     	;# 
   571     0FEA                     	;# 
   572     0FEB                     	;# 
   573     0FED                     	;# 
   574     0FEE                     	;# 
   575     0FEF                     	;# 
   576     0000                     	;# 
   577     0001                     	;# 
   578     0002                     	;# 
   579     0003                     	;# 
   580     0004                     	;# 
   581     0005                     	;# 
   582     0006                     	;# 
   583     0007                     	;# 
   584     0008                     	;# 
   585     0009                     	;# 
   586     000A                     	;# 
   587     000B                     	;# 
   588     000C                     	;# 
   589     000D                     	;# 
   590     000E                     	;# 
   591     0010                     	;# 
   592     0011                     	;# 
   593     0012                     	;# 
   594     0013                     	;# 
   595     0016                     	;# 
   596     0017                     	;# 
   597     0018                     	;# 
   598     001C                     	;# 
   599     001C                     	;# 
   600     001D                     	;# 
   601     001D                     	;# 
   602     001E                     	;# 
   603     001F                     	;# 
   604     008C                     	;# 
   605     008C                     	;# 
   606     008D                     	;# 
   607     008E                     	;# 
   608     008E                     	;# 
   609     008F                     	;# 
   610     0090                     	;# 
   611     0090                     	;# 
   612     0091                     	;# 
   613     0093                     	;# 
   614     0094                     	;# 
   615     0095                     	;# 
   616     0096                     	;# 
   617     0097                     	;# 
   618     0098                     	;# 
   619     0099                     	;# 
   620     009A                     	;# 
   621     009B                     	;# 
   622     009C                     	;# 
   623     009D                     	;# 
   624     009E                     	;# 
   625     010C                     	;# 
   626     010D                     	;# 
   627     010E                     	;# 
   628     010E                     	;# 
   629     010F                     	;# 
   630     0110                     	;# 
   631     0110                     	;# 
   632     0111                     	;# 
   633     0112                     	;# 
   634     0112                     	;# 
   635     0113                     	;# 
   636     0114                     	;# 
   637     0114                     	;# 
   638     0115                     	;# 
   639     0116                     	;# 
   640     0116                     	;# 
   641     0117                     	;# 
   642     0119                     	;# 
   643     0119                     	;# 
   644     0119                     	;# 
   645     011A                     	;# 
   646     011A                     	;# 
   647     011A                     	;# 
   648     011B                     	;# 
   649     011B                     	;# 
   650     011B                     	;# 
   651     011B                     	;# 
   652     011B                     	;# 
   653     011C                     	;# 
   654     011C                     	;# 
   655     011C                     	;# 
   656     011D                     	;# 
   657     011D                     	;# 
   658     011D                     	;# 
   659     011E                     	;# 
   660     011E                     	;# 
   661     011E                     	;# 
   662     011F                     	;# 
   663     011F                     	;# 
   664     011F                     	;# 
   665     011F                     	;# 
   666     011F                     	;# 
   667     018C                     	;# 
   668     018D                     	;# 
   669     018E                     	;# 
   670     018F                     	;# 
   671     0190                     	;# 
   672     0191                     	;# 
   673     0192                     	;# 
   674     0196                     	;# 
   675     0197                     	;# 
   676     0198                     	;# 
   677     0199                     	;# 
   678     019A                     	;# 
   679     019B                     	;# 
   680     019C                     	;# 
   681     020C                     	;# 
   682     020C                     	;# 
   683     020D                     	;# 
   684     020E                     	;# 
   685     020F                     	;# 
   686     020F                     	;# 
   687     0210                     	;# 
   688     0210                     	;# 
   689     0211                     	;# 
   690     0211                     	;# 
   691     0212                     	;# 
   692     0212                     	;# 
   693     0213                     	;# 
   694     0214                     	;# 
   695     0215                     	;# 
   696     0215                     	;# 
   697     0216                     	;# 
   698     0216                     	;# 
   699     0217                     	;# 
   700     0217                     	;# 
   701     0218                     	;# 
   702     0218                     	;# 
   703     0219                     	;# 
   704     021A                     	;# 
   705     021B                     	;# 
   706     021B                     	;# 
   707     021C                     	;# 
   708     021C                     	;# 
   709     021D                     	;# 
   710     021D                     	;# 
   711     021E                     	;# 
   712     021F                     	;# 
   713     028C                     	;# 
   714     028C                     	;# 
   715     028D                     	;# 
   716     028D                     	;# 
   717     028E                     	;# 
   718     028F                     	;# 
   719     0290                     	;# 
   720     0290                     	;# 
   721     0291                     	;# 
   722     0292                     	;# 
   723     0292                     	;# 
   724     0293                     	;# 
   725     0293                     	;# 
   726     0294                     	;# 
   727     0295                     	;# 
   728     0296                     	;# 
   729     0296                     	;# 
   730     0297                     	;# 
   731     0298                     	;# 
   732     0298                     	;# 
   733     0299                     	;# 
   734     0299                     	;# 
   735     029A                     	;# 
   736     029B                     	;# 
   737     029C                     	;# 
   738     029C                     	;# 
   739     029D                     	;# 
   740     030C                     	;# 
   741     030C                     	;# 
   742     030D                     	;# 
   743     030E                     	;# 
   744     030F                     	;# 
   745     0310                     	;# 
   746     0310                     	;# 
   747     0311                     	;# 
   748     0312                     	;# 
   749     0313                     	;# 
   750     0314                     	;# 
   751     0314                     	;# 
   752     0315                     	;# 
   753     0316                     	;# 
   754     0317                     	;# 
   755     0318                     	;# 
   756     0318                     	;# 
   757     0319                     	;# 
   758     031A                     	;# 
   759     031B                     	;# 
   760     031C                     	;# 
   761     031C                     	;# 
   762     031D                     	;# 
   763     031E                     	;# 
   764     031F                     	;# 
   765     038C                     	;# 
   766     038C                     	;# 
   767     038D                     	;# 
   768     038E                     	;# 
   769     0390                     	;# 
   770     0390                     	;# 
   771     0391                     	;# 
   772     0392                     	;# 
   773     040C                     	;# 
   774     040D                     	;# 
   775     040E                     	;# 
   776     040F                     	;# 
   777     0410                     	;# 
   778     0411                     	;# 
   779     0416                     	;# 
   780     0416                     	;# 
   781     0417                     	;# 
   782     0418                     	;# 
   783     0418                     	;# 
   784     0419                     	;# 
   785     041A                     	;# 
   786     041A                     	;# 
   787     041B                     	;# 
   788     041C                     	;# 
   789     041C                     	;# 
   790     041D                     	;# 
   791     041E                     	;# 
   792     041F                     	;# 
   793     048C                     	;# 
   794     048C                     	;# 
   795     048D                     	;# 
   796     048E                     	;# 
   797     048F                     	;# 
   798     048F                     	;# 
   799     0490                     	;# 
   800     0491                     	;# 
   801     0492                     	;# 
   802     0492                     	;# 
   803     0493                     	;# 
   804     0494                     	;# 
   805     0495                     	;# 
   806     0495                     	;# 
   807     0496                     	;# 
   808     0497                     	;# 
   809     0498                     	;# 
   810     0499                     	;# 
   811     049A                     	;# 
   812     049B                     	;# 
   813     049C                     	;# 
   814     049D                     	;# 
   815     050C                     	;# 
   816     050C                     	;# 
   817     050D                     	;# 
   818     050E                     	;# 
   819     050F                     	;# 
   820     050F                     	;# 
   821     0510                     	;# 
   822     0511                     	;# 
   823     0512                     	;# 
   824     0512                     	;# 
   825     0513                     	;# 
   826     0514                     	;# 
   827     0515                     	;# 
   828     0515                     	;# 
   829     0516                     	;# 
   830     0517                     	;# 
   831     0518                     	;# 
   832     0519                     	;# 
   833     051A                     	;# 
   834     051B                     	;# 
   835     051C                     	;# 
   836     051D                     	;# 
   837     058C                     	;# 
   838     058C                     	;# 
   839     058D                     	;# 
   840     058E                     	;# 
   841     058F                     	;# 
   842     058F                     	;# 
   843     0590                     	;# 
   844     0591                     	;# 
   845     0592                     	;# 
   846     0593                     	;# 
   847     060C                     	;# 
   848     060D                     	;# 
   849     060E                     	;# 
   850     060F                     	;# 
   851     0610                     	;# 
   852     0611                     	;# 
   853     0612                     	;# 
   854     0613                     	;# 
   855     0614                     	;# 
   856     0616                     	;# 
   857     0617                     	;# 
   858     0618                     	;# 
   859     0619                     	;# 
   860     061A                     	;# 
   861     061B                     	;# 
   862     061C                     	;# 
   863     061D                     	;# 
   864     061E                     	;# 
   865     068C                     	;# 
   866     068D                     	;# 
   867     068E                     	;# 
   868     068F                     	;# 
   869     0690                     	;# 
   870     0691                     	;# 
   871     0692                     	;# 
   872     0693                     	;# 
   873     0694                     	;# 
   874     070C                     	;# 
   875     070D                     	;# 
   876     070E                     	;# 
   877     070F                     	;# 
   878     0710                     	;# 
   879     0711                     	;# 
   880     0712                     	;# 
   881     0713                     	;# 
   882     0714                     	;# 
   883     0716                     	;# 
   884     0717                     	;# 
   885     0718                     	;# 
   886     0719                     	;# 
   887     071A                     	;# 
   888     071B                     	;# 
   889     071C                     	;# 
   890     071D                     	;# 
   891     071E                     	;# 
   892     0796                     	;# 
   893     0797                     	;# 
   894     0798                     	;# 
   895     0799                     	;# 
   896     079A                     	;# 
   897     079B                     	;# 
   898     080C                     	;# 
   899     080D                     	;# 
   900     080E                     	;# 
   901     080F                     	;# 
   902     0810                     	;# 
   903     0811                     	;# 
   904     0812                     	;# 
   905     0813                     	;# 
   906     0814                     	;# 
   907     081A                     	;# 
   908     081B                     	;# 
   909     081C                     	;# 
   910     081D                     	;# 
   911     081E                     	;# 
   912     081F                     	;# 
   913     088C                     	;# 
   914     088D                     	;# 
   915     088E                     	;# 
   916     088F                     	;# 
   917     0890                     	;# 
   918     0891                     	;# 
   919     0892                     	;# 
   920     0893                     	;# 
   921     0895                     	;# 
   922     0896                     	;# 
   923     0897                     	;# 
   924     0898                     	;# 
   925     0899                     	;# 
   926     089A                     	;# 
   927     089B                     	;# 
   928     090C                     	;# 
   929     090E                     	;# 
   930     090F                     	;# 
   931     091F                     	;# 
   932     098F                     	;# 
   933     098F                     	;# 
   934     0990                     	;# 
   935     0991                     	;# 
   936     0992                     	;# 
   937     0993                     	;# 
   938     0994                     	;# 
   939     0995                     	;# 
   940     0996                     	;# 
   941     0997                     	;# 
   942     0E0F                     	;# 
   943     0E10                     	;# 
   944     0E11                     	;# 
   945     0E12                     	;# 
   946     0E13                     	;# 
   947     0E14                     	;# 
   948     0E15                     	;# 
   949     0E16                     	;# 
   950     0E17                     	;# 
   951     0E18                     	;# 
   952     0E19                     	;# 
   953     0E1A                     	;# 
   954     0E1B                     	;# 
   955     0E1C                     	;# 
   956     0E1D                     	;# 
   957     0E1E                     	;# 
   958     0E1F                     	;# 
   959     0E20                     	;# 
   960     0E21                     	;# 
   961     0E22                     	;# 
   962     0E23                     	;# 
   963     0E24                     	;# 
   964     0E25                     	;# 
   965     0E26                     	;# 
   966     0E27                     	;# 
   967     0E28                     	;# 
   968     0E29                     	;# 
   969     0E2A                     	;# 
   970     0E2B                     	;# 
   971     0E2C                     	;# 
   972     0E2D                     	;# 
   973     0E2E                     	;# 
   974     0E2F                     	;# 
   975     0E30                     	;# 
   976     0E31                     	;# 
   977     0E32                     	;# 
   978     0E33                     	;# 
   979     0E34                     	;# 
   980     0E35                     	;# 
   981     0E36                     	;# 
   982     0E37                     	;# 
   983     0E8F                     	;# 
   984     0E90                     	;# 
   985     0E91                     	;# 
   986     0E92                     	;# 
   987     0E93                     	;# 
   988     0E94                     	;# 
   989     0E95                     	;# 
   990     0E96                     	;# 
   991     0E97                     	;# 
   992     0E9C                     	;# 
   993     0E9D                     	;# 
   994     0E9E                     	;# 
   995     0EA1                     	;# 
   996     0EA2                     	;# 
   997     0EA3                     	;# 
   998     0EA4                     	;# 
   999     0EA5                     	;# 
  1000     0EA9                     	;# 
  1001     0EAA                     	;# 
  1002     0EAB                     	;# 
  1003     0EAC                     	;# 
  1004     0EB1                     	;# 
  1005     0EB2                     	;# 
  1006     0EB3                     	;# 
  1007     0EB8                     	;# 
  1008     0EB9                     	;# 
  1009     0EBA                     	;# 
  1010     0EBB                     	;# 
  1011     0EBC                     	;# 
  1012     0EBD                     	;# 
  1013     0EBE                     	;# 
  1014     0EC3                     	;# 
  1015     0EC5                     	;# 
  1016     0EC6                     	;# 
  1017     0EC7                     	;# 
  1018     0EC8                     	;# 
  1019     0EC9                     	;# 
  1020     0ECA                     	;# 
  1021     0ECB                     	;# 
  1022     0ECC                     	;# 
  1023     0F10                     	;# 
  1024     0F11                     	;# 
  1025     0F12                     	;# 
  1026     0F13                     	;# 
  1027     0F14                     	;# 
  1028     0F15                     	;# 
  1029     0F16                     	;# 
  1030     0F17                     	;# 
  1031     0F18                     	;# 
  1032     0F19                     	;# 
  1033     0F1A                     	;# 
  1034     0F1B                     	;# 
  1035     0F1C                     	;# 
  1036     0F1D                     	;# 
  1037     0F1E                     	;# 
  1038     0F1F                     	;# 
  1039     0F20                     	;# 
  1040     0F21                     	;# 
  1041     0F22                     	;# 
  1042     0F23                     	;# 
  1043     0F24                     	;# 
  1044     0F25                     	;# 
  1045     0F26                     	;# 
  1046     0F27                     	;# 
  1047     0F38                     	;# 
  1048     0F39                     	;# 
  1049     0F3A                     	;# 
  1050     0F3B                     	;# 
  1051     0F3C                     	;# 
  1052     0F3D                     	;# 
  1053     0F3E                     	;# 
  1054     0F3F                     	;# 
  1055     0F40                     	;# 
  1056     0F41                     	;# 
  1057     0F43                     	;# 
  1058     0F44                     	;# 
  1059     0F45                     	;# 
  1060     0F46                     	;# 
  1061     0F47                     	;# 
  1062     0F48                     	;# 
  1063     0F49                     	;# 
  1064     0F4A                     	;# 
  1065     0F4B                     	;# 
  1066     0F4C                     	;# 
  1067     0F4E                     	;# 
  1068     0F4F                     	;# 
  1069     0F50                     	;# 
  1070     0F51                     	;# 
  1071     0F52                     	;# 
  1072     0F53                     	;# 
  1073     0F54                     	;# 
  1074     0F55                     	;# 
  1075     0F56                     	;# 
  1076     0F57                     	;# 
  1077     0F65                     	;# 
  1078     0F68                     	;# 
  1079     0F69                     	;# 
  1080     0F6A                     	;# 
  1081     0F6B                     	;# 
  1082     0FE4                     	;# 
  1083     0FE5                     	;# 
  1084     0FE6                     	;# 
  1085     0FE7                     	;# 
  1086     0FE8                     	;# 
  1087     0FE9                     	;# 
  1088     0FEA                     	;# 
  1089     0FEB                     	;# 
  1090     0FED                     	;# 
  1091     0FEE                     	;# 
  1092     0FEF                     	;# 
  1093                           
  1094                           	psect	idataBANK0
  1095     04C7                     __pidataBANK0:
  1096                           
  1097                           ;initializer for _segBuf
  1098     04C7  347F               	retlw	127
  1099     04C8  347F               	retlw	127
  1100     04C9  347F               	retlw	127
  1101     04CA  347F               	retlw	127
  1102                           
  1103                           ;initializer for _posCode
  1104     04CB  34F7               	retlw	247
  1105                           
  1106                           	psect	stringtext1
  1107     04BC                     __pstringtext1:
  1108     04BC                     _SEGMENT:
  1109     04BC  347F               	retlw	127
  1110     04BD  3406               	retlw	6
  1111     04BE  34DB               	retlw	219
  1112     04BF  34CF               	retlw	207
  1113     04C0  34E6               	retlw	230
  1114     04C1  34ED               	retlw	237
  1115     04C2  34FD               	retlw	253
  1116     04C3  3407               	retlw	7
  1117     04C4  34FF               	retlw	255
  1118     04C5  34EF               	retlw	239
  1119     04C6  34F7               	retlw	247
  1120     04C7                     __end_of_SEGMENT:
  1121                           
  1122                           	psect	nvBANK0
  1123     0056                     __pnvBANK0:
  1124     0056                     _voltage:
  1125     0056                     	ds	2
  1126     0058                     _ADCres:
  1127     0058                     	ds	2
  1128     000B                     _INTCON	set	11
  1129     001F                     _T0CON1	set	31
  1130     001E                     _T0CON0	set	30
  1131     0018                     _LATC	set	24
  1132     0013                     _TRISC	set	19
  1133     0012                     _TRISB	set	18
  1134     0016                     _LATA	set	22
  1135     0011                     _TRISA	set	17
  1136     000E                     _PORTC	set	14
  1137     000C                     _PORTA	set	12
  1138     008C                     _ADRESL	set	140
  1139     008D                     _ADRESH	set	141
  1140     009A                     _ADREF	set	154
  1141     009E                     _ADPCH	set	158
  1142     0093                     _ADCON0	set	147
  1143     0716                     _PIE0	set	1814
  1144     070C                     _PIR0bits	set	1804
  1145     090C                     _FVRCON	set	2316
  1146     0E90                     _INTPPS	set	3728
  1147     0F4E                     _ANSELC	set	3918
  1148     0F44                     _WPUB	set	3908
  1149     0F43                     _ANSELB	set	3907
  1150     0F38                     _ANSELA	set	3896
  1151                           
  1152                           	psect	cinit
  1153     000F                     start_initialization:	
  1154                           ; #config settings
  1155                           
  1156     000F                     __initialization:
  1157                           
  1158                           ; Initialize objects allocated to BANK0
  1159     000F  30C7               	movlw	low __pidataBANK0
  1160     0010  0084               	movwf	4
  1161     0011  3084               	movlw	(high __pidataBANK0)| (0+128)
  1162     0012  0085               	movwf	5
  1163     0013  0012               	moviw fsr0++
  1164     0014  00D1               	movwf	__pdataBANK0& (0+127)
  1165     0015  0012               	moviw fsr0++
  1166     0016  00D2               	movwf	(__pdataBANK0+1)& (0+127)
  1167     0017  0012               	moviw fsr0++
  1168     0018  00D3               	movwf	(__pdataBANK0+2)& (0+127)
  1169     0019  0012               	moviw fsr0++
  1170     001A  00D4               	movwf	(__pdataBANK0+3)& (0+127)
  1171     001B  0012               	moviw fsr0++
  1172     001C  00D5               	movwf	(__pdataBANK0+4)& (0+127)
  1173                           
  1174                           ; Clear objects allocated to COMMON
  1175     001D  01FB               	clrf	__pbssCOMMON& (0+127)
  1176                           
  1177                           ; Clear objects allocated to BANK0
  1178     001E  01DA               	clrf	__pbssBANK0& (0+127)
  1179     001F  01DB               	clrf	(__pbssBANK0+1)& (0+127)
  1180     0020                     end_of_initialization:	
  1181                           ;End of C runtime variable initialization code
  1182                           
  1183     0020                     __end_of__initialization:
  1184     0020  107E               	bcf	int$flags,0	;clear compiler interrupt flag (level 1)
  1185     0021  0020               	movlb	0
  1186     0022  3182  2A79         	ljmp	_main	;jump to C main() function
  1187                           
  1188                           	psect	bssCOMMON
  1189     007B                     __pbssCOMMON:
  1190     007B                     _idx:
  1191     007B                     	ds	1
  1192                           
  1193                           	psect	bssBANK0
  1194     005A                     __pbssBANK0:
  1195     005A                     _ADCcount:
  1196     005A                     	ds	2
  1197                           
  1198                           	psect	dataBANK0
  1199     0051                     __pdataBANK0:
  1200     0051                     _segBuf:
  1201     0051                     	ds	4
  1202     0055                     _posCode:
  1203     0055                     	ds	1
  1204                           
  1205                           	psect	cstackCOMMON
  1206     0070                     __pcstackCOMMON:
  1207     0070                     ?_scan_LED:
  1208     0070                     ??_scan_LED:	
  1209                           ; 1 bytes @ 0x0
  1210                           
  1211     0070                     ?_div_num:	
  1212                           ; 1 bytes @ 0x0
  1213                           
  1214     0070                     ?_ISR:	
  1215                           ; 1 bytes @ 0x0
  1216                           
  1217     0070                     ?_main:	
  1218                           ; 1 bytes @ 0x0
  1219                           
  1220                           
  1221                           ; 2 bytes @ 0x0
  1222     0070                     	ds	1
  1223     0071                     ??_ISR:
  1224     0071                     ?___awdiv:	
  1225                           ; 1 bytes @ 0x1
  1226                           
  1227     0071                     ?___xxtofl:	
  1228                           ; 2 bytes @ 0x1
  1229                           
  1230     0071                     ___awdiv@divisor:	
  1231                           ; 4 bytes @ 0x1
  1232                           
  1233     0071                     ___xxtofl@val:	
  1234                           ; 2 bytes @ 0x1
  1235                           
  1236                           
  1237                           ; 4 bytes @ 0x1
  1238     0071                     	ds	2
  1239     0073                     ___awdiv@dividend:
  1240                           
  1241                           ; 2 bytes @ 0x3
  1242     0073                     	ds	2
  1243     0075                     ??___awdiv:
  1244     0075                     ??___xxtofl:	
  1245                           ; 1 bytes @ 0x5
  1246                           
  1247                           
  1248                           ; 1 bytes @ 0x5
  1249     0075                     	ds	1
  1250     0076                     ___awdiv@counter:
  1251                           
  1252                           ; 1 bytes @ 0x6
  1253     0076                     	ds	1
  1254     0077                     ___awdiv@sign:
  1255                           
  1256                           ; 1 bytes @ 0x7
  1257     0077                     	ds	1
  1258     0078                     ___awdiv@quotient:
  1259                           
  1260                           ; 2 bytes @ 0x8
  1261     0078                     	ds	1
  1262     0079                     ___fltol@sign1:
  1263                           
  1264                           ; 1 bytes @ 0x9
  1265     0079                     	ds	1
  1266     007A                     ??___awmod:
  1267     007A                     ___fltol@exp1:	
  1268                           ; 1 bytes @ 0xA
  1269                           
  1270                           
  1271                           ; 1 bytes @ 0xA
  1272     007A                     	ds	1
  1273     007B                     ??_div_num:
  1274                           
  1275                           	psect	cstackBANK0
  1276     0020                     __pcstackBANK0:	
  1277                           ; 1 bytes @ 0xB
  1278                           
  1279     0020                     ?___awmod:
  1280     0020                     ___xxtofl@sign:	
  1281                           ; 2 bytes @ 0x0
  1282                           
  1283     0020                     ___awmod@divisor:	
  1284                           ; 1 bytes @ 0x0
  1285                           
  1286                           
  1287                           ; 2 bytes @ 0x0
  1288     0020                     	ds	1
  1289     0021                     ___xxtofl@exp:
  1290                           
  1291                           ; 1 bytes @ 0x1
  1292     0021                     	ds	1
  1293     0022                     ___awmod@dividend:
  1294     0022                     ___xxtofl@arg:	
  1295                           ; 2 bytes @ 0x2
  1296                           
  1297                           
  1298                           ; 4 bytes @ 0x2
  1299     0022                     	ds	2
  1300     0024                     ___awmod@counter:
  1301                           
  1302                           ; 1 bytes @ 0x4
  1303     0024                     	ds	1
  1304     0025                     ___awmod@sign:
  1305                           
  1306                           ; 1 bytes @ 0x5
  1307     0025                     	ds	1
  1308     0026                     ?___fldiv:
  1309     0026                     ___fldiv@a:	
  1310                           ; 4 bytes @ 0x6
  1311                           
  1312                           
  1313                           ; 4 bytes @ 0x6
  1314     0026                     	ds	4
  1315     002A                     ___fldiv@b:
  1316                           
  1317                           ; 4 bytes @ 0xA
  1318     002A                     	ds	4
  1319     002E                     ??___fldiv:
  1320                           
  1321                           ; 1 bytes @ 0xE
  1322     002E                     	ds	5
  1323     0033                     ___fldiv@rem:
  1324                           
  1325                           ; 4 bytes @ 0x13
  1326     0033                     	ds	4
  1327     0037                     ___fldiv@sign:
  1328                           
  1329                           ; 1 bytes @ 0x17
  1330     0037                     	ds	1
  1331     0038                     ___fldiv@new_exp:
  1332                           
  1333                           ; 2 bytes @ 0x18
  1334     0038                     	ds	2
  1335     003A                     ___fldiv@grs:
  1336                           
  1337                           ; 4 bytes @ 0x1A
  1338     003A                     	ds	4
  1339     003E                     ___fldiv@bexp:
  1340                           
  1341                           ; 1 bytes @ 0x1E
  1342     003E                     	ds	1
  1343     003F                     ___fldiv@aexp:
  1344                           
  1345                           ; 1 bytes @ 0x1F
  1346     003F                     	ds	1
  1347     0040                     ?___fltol:
  1348     0040                     ___fltol@f1:	
  1349                           ; 4 bytes @ 0x20
  1350                           
  1351                           
  1352                           ; 4 bytes @ 0x20
  1353     0040                     	ds	4
  1354     0044                     ??___fltol:
  1355                           
  1356                           ; 1 bytes @ 0x24
  1357     0044                     	ds	4
  1358     0048                     ??_main:
  1359                           
  1360                           ; 1 bytes @ 0x28
  1361     0048                     	ds	3
  1362     004B                     main@v_high:
  1363                           
  1364                           ; 2 bytes @ 0x2B
  1365     004B                     	ds	2
  1366     004D                     main@v_low:
  1367                           
  1368                           ; 2 bytes @ 0x2D
  1369     004D                     	ds	2
  1370     004F                     main@i:
  1371                           
  1372                           ; 2 bytes @ 0x2F
  1373     004F                     	ds	2
  1374                           
  1375                           	psect	maintext
  1376     0279                     __pmaintext:	
  1377 ;;
  1378 ;;Main: autosize = 0, tempsize = 3, incstack = 0, save=0
  1379 ;;
  1380 ;; *************** function _main *****************
  1381 ;; Defined at:
  1382 ;;		line 98 in file "lab6_C.c"
  1383 ;; Parameters:    Size  Location     Type
  1384 ;;		None
  1385 ;; Auto vars:     Size  Location     Type
  1386 ;;  i               2   47[BANK0 ] int 
  1387 ;;  v_low           2   45[BANK0 ] int 
  1388 ;;  v_high          2   43[BANK0 ] int 
  1389 ;; Return value:  Size  Location     Type
  1390 ;;                  2   76[None  ] int 
  1391 ;; Registers used:
  1392 ;;		wreg, fsr0l, fsr0h, status,2, status,0, pclath, cstack
  1393 ;; Tracked objects:
  1394 ;;		On entry : B1F/0
  1395 ;;		On exit  : 0/0
  1396 ;;		Unchanged: 0/0
  1397 ;; Data sizes:     COMMON   BANK0   BANK1   BANK2   BANK3   BANK4   BANK5   BANK6
  1398 ;;      Params:         0       0       0       0       0       0       0       0
  1399 ;;      Locals:         0       6       0       0       0       0       0       0
  1400 ;;      Temps:          0       3       0       0       0       0       0       0
  1401 ;;      Totals:         0       9       0       0       0       0       0       0
  1402 ;;Total ram usage:        9 bytes
  1403 ;; Hardware stack levels required when called: 4
  1404 ;; This function calls:
  1405 ;;		___fldiv
  1406 ;;		___fltol
  1407 ;;		___xxtofl
  1408 ;;		_div_num
  1409 ;; This function is called by:
  1410 ;;		Startup code after reset
  1411 ;; This function uses a non-reentrant model
  1412 ;;
  1413                           
  1414     0279                     _main:	
  1415                           ;psect for function _main
  1416                           
  1417     0279                     l1500:	
  1418                           ;incstack = 0
  1419                           ; Regs used in _main: [wreg-fsr0h+status,2+status,0+pclath+cstack]
  1420                           
  1421     0279  003E               	movlb	30	; select bank30
  1422     027A  01B8               	clrf	56	;volatile
  1423     027B  0020               	movlb	0	; select bank0
  1424     027C  0191               	clrf	17	;volatile
  1425     027D  0196               	clrf	22	;volatile
  1426     027E  003E               	movlb	30	; select bank30
  1427     027F  01C3               	clrf	67	;volatile
  1428     0280                     l1502:
  1429     0280  30FF               	movlw	255
  1430     0281  0020               	movlb	0	; select bank0
  1431     0282  0092               	movwf	18	;volatile
  1432     0283                     l1504:
  1433     0283  30FF               	movlw	255
  1434     0284  003E               	movlb	30	; select bank30
  1435     0285  00C4               	movwf	68	;volatile
  1436     0286  0020               	movlb	0	; select bank0
  1437     0287  0192               	clrf	18	;volatile
  1438     0288  003E               	movlb	30	; select bank30
  1439     0289  01CE               	clrf	78	;volatile
  1440     028A  0020               	movlb	0	; select bank0
  1441     028B  0193               	clrf	19	;volatile
  1442     028C  0198               	clrf	24	;volatile
  1443     028D                     l1506:
  1444     028D  3080               	movlw	128
  1445     028E  009E               	movwf	30	;volatile
  1446     028F                     l1508:
  1447     028F  3042               	movlw	66
  1448     0290  009F               	movwf	31	;volatile
  1449     0291                     l1510:
  1450     0291  3084               	movlw	132
  1451     0292  0021               	movlb	1	; select bank1
  1452     0293  0093               	movwf	19	;volatile
  1453     0294                     l1512:
  1454     0294  30FF               	movlw	255
  1455     0295  009E               	movwf	30	;volatile
  1456     0296  019A               	clrf	26	;volatile
  1457     0297                     l1514:
  1458     0297  3081               	movlw	129
  1459     0298  0032               	movlb	18	; select bank18
  1460     0299  008C               	movwf	12	;volatile
  1461     029A                     l1516:
  1462     029A  3008               	movlw	8
  1463     029B  003D               	movlb	29	; select bank29
  1464     029C  0090               	movwf	16	;volatile
  1465     029D                     l1518:
  1466     029D  3081               	movlw	129
  1467     029E  008B               	movwf	11	;volatile
  1468     029F                     l1520:
  1469     029F  3020               	movlw	32
  1470     02A0  002E               	movlb	14	; select bank14
  1471     02A1  0096               	movwf	22	;volatile
  1472     02A2                     l1522:
  1473     02A2  0021               	movlb	1	; select bank1
  1474     02A3  080D               	movf	13,w	;volatile
  1475     02A4  0020               	movlb	0	; select bank0
  1476     02A5  00C8               	movwf	??_main
  1477     02A6  01C9               	clrf	??_main+1
  1478     02A7  0848               	movf	??_main,w
  1479     02A8  00CB               	movwf	main@v_high
  1480     02A9  0849               	movf	??_main+1,w
  1481     02AA  00CC               	movwf	main@v_high+1
  1482     02AB                     l1524:
  1483     02AB  0021               	movlb	1	; select bank1
  1484     02AC  080C               	movf	12,w	;volatile
  1485     02AD  0020               	movlb	0	; select bank0
  1486     02AE  00C8               	movwf	??_main
  1487     02AF  01C9               	clrf	??_main+1
  1488     02B0  0848               	movf	??_main,w
  1489     02B1  00CD               	movwf	main@v_low
  1490     02B2  0849               	movf	??_main+1,w
  1491     02B3  00CE               	movwf	main@v_low+1
  1492     02B4                     l1526:
  1493     02B4  0021               	movlb	1	; select bank1
  1494     02B5  1413               	bsf	19,0	;volatile
  1495     02B6                     l1528:
  1496     02B6  0020               	movlb	0	; select bank0
  1497     02B7  084C               	movf	main@v_high+1,w
  1498     02B8  00C9               	movwf	??_main+1
  1499     02B9  084B               	movf	main@v_high,w
  1500     02BA  00C8               	movwf	??_main
  1501     02BB  0848               	movf	??_main,w
  1502     02BC  00C9               	movwf	??_main+1
  1503     02BD  01C8               	clrf	??_main
  1504     02BE  084D               	movf	main@v_low,w
  1505     02BF  0448               	iorwf	??_main,w
  1506     02C0  00D8               	movwf	_ADCres
  1507     02C1  084E               	movf	main@v_low+1,w
  1508     02C2  0449               	iorwf	??_main+1,w
  1509     02C3  00D9               	movwf	_ADCres+1
  1510     02C4                     l1530:
  1511     02C4  3049               	movlw	73
  1512     02C5  00AD               	movwf	___fldiv@b+3
  1513     02C6  3080               	movlw	128
  1514     02C7  00AC               	movwf	___fldiv@b+2
  1515     02C8  3000               	movlw	0
  1516     02C9  00AB               	movwf	___fldiv@b+1
  1517     02CA  3000               	movlw	0
  1518     02CB  00AA               	movwf	___fldiv@b
  1519     02CC  0858               	movf	_ADCres,w
  1520     02CD  00F1               	movwf	___xxtofl@val
  1521     02CE  0859               	movf	_ADCres+1,w
  1522     02CF  00F2               	movwf	___xxtofl@val+1
  1523     02D0  0D89               	rlf	9,f
  1524     02D1  3B89               	subwfb	9,f
  1525     02D2  0989               	comf	9,f
  1526     02D3  00F3               	movwf	___xxtofl@val+2
  1527     02D4  00F4               	movwf	___xxtofl@val+3
  1528     02D5  3001               	movlw	1
  1529     02D6  3181  21CE  3182   	fcall	___xxtofl
  1530     02D9  0874               	movf	?___xxtofl+3,w
  1531     02DA  0020               	movlb	0	; select bank0
  1532     02DB  00A9               	movwf	___fldiv@a+3
  1533     02DC  0873               	movf	?___xxtofl+2,w
  1534     02DD  00A8               	movwf	___fldiv@a+2
  1535     02DE  0872               	movf	?___xxtofl+1,w
  1536     02DF  00A7               	movwf	___fldiv@a+1
  1537     02E0  0871               	movf	?___xxtofl,w
  1538     02E1  00A6               	movwf	___fldiv@a
  1539     02E2  3180  2024  3182   	fcall	___fldiv
  1540     02E5  0020               	movlb	0	; select bank0
  1541     02E6  0829               	movf	?___fldiv+3,w
  1542     02E7  00C3               	movwf	___fltol@f1+3
  1543     02E8  0828               	movf	?___fldiv+2,w
  1544     02E9  00C2               	movwf	___fltol@f1+2
  1545     02EA  0827               	movf	?___fldiv+1,w
  1546     02EB  00C1               	movwf	___fltol@f1+1
  1547     02EC  0826               	movf	?___fldiv,w
  1548     02ED  00C0               	movwf	___fltol@f1
  1549     02EE  3183  2311  3182   	fcall	___fltol
  1550     02F1  0020               	movlb	0	; select bank0
  1551     02F2  0841               	movf	?___fltol+1,w
  1552     02F3  00D7               	movwf	_voltage+1
  1553     02F4  0840               	movf	?___fltol,w
  1554     02F5  00D6               	movwf	_voltage
  1555     02F6                     l1532:
  1556     02F6  3183  2382  3182   	fcall	_div_num
  1557     02F9                     l1534:
  1558     02F9  0020               	movlb	0	; select bank0
  1559     02FA  01CF               	clrf	main@i
  1560     02FB  01D0               	clrf	main@i+1
  1561     02FC                     l1540:
  1562     02FC  3001               	movlw	1
  1563     02FD  0020               	movlb	0	; select bank0
  1564     02FE  07CF               	addwf	main@i,f
  1565     02FF  3000               	movlw	0
  1566     0300  3DD0               	addwfc	main@i+1,f
  1567     0301  0850               	movf	main@i+1,w
  1568     0302  3A80               	xorlw	128
  1569     0303  00C8               	movwf	??_main
  1570     0304  30A7               	movlw	167
  1571     0305  0248               	subwf	??_main,w
  1572     0306  1D03               	skipz
  1573     0307  2B0A               	goto	u1685
  1574     0308  3010               	movlw	16
  1575     0309  024F               	subwf	main@i,w
  1576     030A                     u1685:
  1577     030A  1C03               	skipc
  1578     030B  2B0D               	goto	u1681
  1579     030C  2B0E               	goto	u1680
  1580     030D                     u1681:
  1581     030D  2AFC               	goto	l1540
  1582     030E                     u1680:
  1583     030E  2AA2               	goto	l1522
  1584     030F  3180  280D         	ljmp	start
  1585     0311                     __end_of_main:
  1586                           
  1587                           	psect	text1
  1588     0382                     __ptext1:	
  1589 ;; *************** function _div_num *****************
  1590 ;; Defined at:
  1591 ;;		line 84 in file "lab6_C.c"
  1592 ;; Parameters:    Size  Location     Type
  1593 ;;		None
  1594 ;; Auto vars:     Size  Location     Type
  1595 ;;		None
  1596 ;; Return value:  Size  Location     Type
  1597 ;;                  1    wreg      void 
  1598 ;; Registers used:
  1599 ;;		wreg, fsr0l, fsr0h, status,2, status,0, pclath, cstack
  1600 ;; Tracked objects:
  1601 ;;		On entry : 0/0
  1602 ;;		On exit  : 0/0
  1603 ;;		Unchanged: 0/0
  1604 ;; Data sizes:     COMMON   BANK0   BANK1   BANK2   BANK3   BANK4   BANK5   BANK6
  1605 ;;      Params:         0       0       0       0       0       0       0       0
  1606 ;;      Locals:         0       0       0       0       0       0       0       0
  1607 ;;      Temps:          0       0       0       0       0       0       0       0
  1608 ;;      Totals:         0       0       0       0       0       0       0       0
  1609 ;;Total ram usage:        0 bytes
  1610 ;; Hardware stack levels used: 1
  1611 ;; Hardware stack levels required when called: 3
  1612 ;; This function calls:
  1613 ;;		___awdiv
  1614 ;;		___awmod
  1615 ;; This function is called by:
  1616 ;;		_main
  1617 ;; This function uses a non-reentrant model
  1618 ;;
  1619                           
  1620     0382                     _div_num:	
  1621                           ;psect for function _div_num
  1622                           
  1623     0382                     l1462:	
  1624                           ;incstack = 0
  1625                           ; Regs used in _div_num: [wreg-fsr0h+status,2+status,0+pclath+cstack]
  1626                           
  1627                           
  1628                           ;lab6_C.c: 85:     PIE0 = 0x20;
  1629     0382  30E8               	movlw	232
  1630     0383  00F1               	movwf	___awdiv@divisor
  1631     0384  3003               	movlw	3
  1632     0385  00F2               	movwf	___awdiv@divisor+1
  1633     0386  0020               	movlb	0	; select bank0
  1634     0387  0857               	movf	_voltage+1,w
  1635     0388  00F4               	movwf	___awdiv@dividend+1
  1636     0389  0856               	movf	_voltage,w
  1637     038A  00F3               	movwf	___awdiv@dividend
  1638     038B  3183  23F0  3183   	fcall	___awdiv
  1639     038E  30BC               	movlw	low _SEGMENT
  1640     038F  0771               	addwf	?___awdiv,w
  1641     0390  0084               	movwf	4
  1642     0391  3004               	movlw	high _SEGMENT
  1643     0392  3D72               	addwfc	?___awdiv+1,w
  1644     0393  3880               	iorlw	128
  1645     0394  0085               	movwf	5
  1646     0395  0800               	movf	0,w	;code access
  1647     0396  0020               	movlb	0	; select bank0
  1648     0397  00D4               	movwf	_segBuf+3
  1649                           
  1650                           ;lab6_C.c: 86:     while(1) {
  1651     0398  300A               	movlw	10
  1652     0399  00A0               	movwf	___awmod@divisor
  1653     039A  3000               	movlw	0
  1654     039B  00A1               	movwf	___awmod@divisor+1
  1655     039C  3064               	movlw	100
  1656     039D  00F1               	movwf	___awdiv@divisor
  1657     039E  3000               	movlw	0
  1658     039F  00F2               	movwf	___awdiv@divisor+1
  1659     03A0  0857               	movf	_voltage+1,w
  1660     03A1  00F4               	movwf	___awdiv@dividend+1
  1661     03A2  0856               	movf	_voltage,w
  1662     03A3  00F3               	movwf	___awdiv@dividend
  1663     03A4  3183  23F0  3183   	fcall	___awdiv
  1664     03A7  0872               	movf	?___awdiv+1,w
  1665     03A8  0020               	movlb	0	; select bank0
  1666     03A9  00A3               	movwf	___awmod@dividend+1
  1667     03AA  0871               	movf	?___awdiv,w
  1668     03AB  00A2               	movwf	___awmod@dividend
  1669     03AC  3184  244F  3183   	fcall	___awmod
  1670     03AF  30BC               	movlw	low _SEGMENT
  1671     03B0  0020               	movlb	0	; select bank0
  1672     03B1  0720               	addwf	?___awmod,w
  1673     03B2  0084               	movwf	4
  1674     03B3  3004               	movlw	high _SEGMENT
  1675     03B4  3D21               	addwfc	?___awmod+1,w
  1676     03B5  3880               	iorlw	128
  1677     03B6  0085               	movwf	5
  1678     03B7  0800               	movf	0,w	;code access
  1679     03B8  00D3               	movwf	_segBuf+2
  1680                           
  1681                           ;lab6_C.c: 87:         int v_high = ADRESH;
  1682     03B9  300A               	movlw	10
  1683     03BA  00A0               	movwf	___awmod@divisor
  1684     03BB  3000               	movlw	0
  1685     03BC  00A1               	movwf	___awmod@divisor+1
  1686     03BD  300A               	movlw	10
  1687     03BE  00F1               	movwf	___awdiv@divisor
  1688     03BF  3000               	movlw	0
  1689     03C0  00F2               	movwf	___awdiv@divisor+1
  1690     03C1  0857               	movf	_voltage+1,w
  1691     03C2  00F4               	movwf	___awdiv@dividend+1
  1692     03C3  0856               	movf	_voltage,w
  1693     03C4  00F3               	movwf	___awdiv@dividend
  1694     03C5  3183  23F0  3183   	fcall	___awdiv
  1695     03C8  0872               	movf	?___awdiv+1,w
  1696     03C9  0020               	movlb	0	; select bank0
  1697     03CA  00A3               	movwf	___awmod@dividend+1
  1698     03CB  0871               	movf	?___awdiv,w
  1699     03CC  00A2               	movwf	___awmod@dividend
  1700     03CD  3184  244F  3183   	fcall	___awmod
  1701     03D0  30BC               	movlw	low _SEGMENT
  1702     03D1  0020               	movlb	0	; select bank0
  1703     03D2  0720               	addwf	?___awmod,w
  1704     03D3  0084               	movwf	4
  1705     03D4  3004               	movlw	high _SEGMENT
  1706     03D5  3D21               	addwfc	?___awmod+1,w
  1707     03D6  3880               	iorlw	128
  1708     03D7  0085               	movwf	5
  1709     03D8  0800               	movf	0,w	;code access
  1710     03D9  00D2               	movwf	_segBuf+1
  1711                           
  1712                           ;lab6_C.c: 88:         int v_low = ADRESL;
  1713     03DA  300A               	movlw	10
  1714     03DB  00A0               	movwf	___awmod@divisor
  1715     03DC  3000               	movlw	0
  1716     03DD  00A1               	movwf	___awmod@divisor+1
  1717     03DE  0857               	movf	_voltage+1,w
  1718     03DF  00A3               	movwf	___awmod@dividend+1
  1719     03E0  0856               	movf	_voltage,w
  1720     03E1  00A2               	movwf	___awmod@dividend
  1721     03E2  3184  244F  3183   	fcall	___awmod
  1722     03E5  30BC               	movlw	low _SEGMENT
  1723     03E6  0020               	movlb	0	; select bank0
  1724     03E7  0720               	addwf	?___awmod,w
  1725     03E8  0084               	movwf	4
  1726     03E9  3004               	movlw	high _SEGMENT
  1727     03EA  3D21               	addwfc	?___awmod+1,w
  1728     03EB  3880               	iorlw	128
  1729     03EC  0085               	movwf	5
  1730     03ED  0800               	movf	0,w	;code access
  1731     03EE  00D1               	movwf	_segBuf
  1732     03EF                     l67:
  1733     03EF  0008               	return
  1734     03F0                     __end_of_div_num:
  1735                           
  1736                           	psect	text2
  1737     044F                     __ptext2:	
  1738 ;; *************** function ___awmod *****************
  1739 ;; Defined at:
  1740 ;;		line 5 in file "C:\Program Files\Microchip\xc8\v2.41\pic\sources\c99\common\awmod.c"
  1741 ;; Parameters:    Size  Location     Type
  1742 ;;  divisor         2    0[BANK0 ] int 
  1743 ;;  dividend        2    2[BANK0 ] int 
  1744 ;; Auto vars:     Size  Location     Type
  1745 ;;  sign            1    5[BANK0 ] unsigned char 
  1746 ;;  counter         1    4[BANK0 ] unsigned char 
  1747 ;; Return value:  Size  Location     Type
  1748 ;;                  2    0[BANK0 ] int 
  1749 ;; Registers used:
  1750 ;;		wreg, status,2, status,0
  1751 ;; Tracked objects:
  1752 ;;		On entry : 0/0
  1753 ;;		On exit  : 0/0
  1754 ;;		Unchanged: 0/0
  1755 ;; Data sizes:     COMMON   BANK0   BANK1   BANK2   BANK3   BANK4   BANK5   BANK6
  1756 ;;      Params:         0       4       0       0       0       0       0       0
  1757 ;;      Locals:         0       2       0       0       0       0       0       0
  1758 ;;      Temps:          1       0       0       0       0       0       0       0
  1759 ;;      Totals:         1       6       0       0       0       0       0       0
  1760 ;;Total ram usage:        7 bytes
  1761 ;; Hardware stack levels used: 1
  1762 ;; Hardware stack levels required when called: 2
  1763 ;; This function calls:
  1764 ;;		Nothing
  1765 ;; This function is called by:
  1766 ;;		_div_num
  1767 ;; This function uses a non-reentrant model
  1768 ;;
  1769                           
  1770     044F                     ___awmod:	
  1771                           ;psect for function ___awmod
  1772                           
  1773     044F                     l1424:	
  1774                           ;incstack = 0
  1775                           ; Regs used in ___awmod: [wreg+status,2+status,0]
  1776                           
  1777     044F  0020               	movlb	0	; select bank0
  1778     0450  01A5               	clrf	___awmod@sign
  1779     0451                     l1426:
  1780     0451  1FA3               	btfss	___awmod@dividend+1,7
  1781     0452  2C54               	goto	u1491
  1782     0453  2C55               	goto	u1490
  1783     0454                     u1491:
  1784     0454  2C5C               	goto	l1432
  1785     0455                     u1490:
  1786     0455                     l1428:
  1787     0455  09A2               	comf	___awmod@dividend,f
  1788     0456  09A3               	comf	___awmod@dividend+1,f
  1789     0457  0AA2               	incf	___awmod@dividend,f
  1790     0458  1903               	skipnz
  1791     0459  0AA3               	incf	___awmod@dividend+1,f
  1792     045A                     l1430:
  1793     045A  01A5               	clrf	___awmod@sign
  1794     045B  0AA5               	incf	___awmod@sign,f
  1795     045C                     l1432:
  1796     045C  1FA1               	btfss	___awmod@divisor+1,7
  1797     045D  2C5F               	goto	u1501
  1798     045E  2C60               	goto	u1500
  1799     045F                     u1501:
  1800     045F  2C65               	goto	l1436
  1801     0460                     u1500:
  1802     0460                     l1434:
  1803     0460  09A0               	comf	___awmod@divisor,f
  1804     0461  09A1               	comf	___awmod@divisor+1,f
  1805     0462  0AA0               	incf	___awmod@divisor,f
  1806     0463  1903               	skipnz
  1807     0464  0AA1               	incf	___awmod@divisor+1,f
  1808     0465                     l1436:
  1809     0465  0820               	movf	___awmod@divisor,w
  1810     0466  0421               	iorwf	___awmod@divisor+1,w
  1811     0467  1903               	btfsc	3,2
  1812     0468  2C6A               	goto	u1511
  1813     0469  2C6B               	goto	u1510
  1814     046A                     u1511:
  1815     046A  2C94               	goto	l1454
  1816     046B                     u1510:
  1817     046B                     l1438:
  1818     046B  01A4               	clrf	___awmod@counter
  1819     046C  0AA4               	incf	___awmod@counter,f
  1820     046D  2C77               	goto	l1444
  1821     046E                     l1440:
  1822     046E  3001               	movlw	1
  1823     046F                     u1525:
  1824     046F  35A0               	lslf	___awmod@divisor,f
  1825     0470  0DA1               	rlf	___awmod@divisor+1,f
  1826     0471  0B89               	decfsz	9,f
  1827     0472  2C6F               	goto	u1525
  1828     0473                     l1442:
  1829     0473  3001               	movlw	1
  1830     0474  00FA               	movwf	??___awmod
  1831     0475  087A               	movf	??___awmod,w
  1832     0476  07A4               	addwf	___awmod@counter,f
  1833     0477                     l1444:
  1834     0477  1FA1               	btfss	___awmod@divisor+1,7
  1835     0478  2C7A               	goto	u1531
  1836     0479  2C7B               	goto	u1530
  1837     047A                     u1531:
  1838     047A  2C6E               	goto	l1440
  1839     047B                     u1530:
  1840     047B                     l1446:
  1841     047B  0821               	movf	___awmod@divisor+1,w
  1842     047C  0223               	subwf	___awmod@dividend+1,w
  1843     047D  1D03               	skipz
  1844     047E  2C81               	goto	u1545
  1845     047F  0820               	movf	___awmod@divisor,w
  1846     0480  0222               	subwf	___awmod@dividend,w
  1847     0481                     u1545:
  1848     0481  1C03               	skipc
  1849     0482  2C84               	goto	u1541
  1850     0483  2C85               	goto	u1540
  1851     0484                     u1541:
  1852     0484  2C89               	goto	l1450
  1853     0485                     u1540:
  1854     0485                     l1448:
  1855     0485  0820               	movf	___awmod@divisor,w
  1856     0486  02A2               	subwf	___awmod@dividend,f
  1857     0487  0821               	movf	___awmod@divisor+1,w
  1858     0488  3BA3               	subwfb	___awmod@dividend+1,f
  1859     0489                     l1450:
  1860     0489  3001               	movlw	1
  1861     048A                     u1555:
  1862     048A  36A1               	lsrf	___awmod@divisor+1,f
  1863     048B  0CA0               	rrf	___awmod@divisor,f
  1864     048C  0B89               	decfsz	9,f
  1865     048D  2C8A               	goto	u1555
  1866     048E                     l1452:
  1867     048E  3001               	movlw	1
  1868     048F  02A4               	subwf	___awmod@counter,f
  1869     0490  1D03               	btfss	3,2
  1870     0491  2C93               	goto	u1561
  1871     0492  2C94               	goto	u1560
  1872     0493                     u1561:
  1873     0493  2C7B               	goto	l1446
  1874     0494                     u1560:
  1875     0494                     l1454:
  1876     0494  0825               	movf	___awmod@sign,w
  1877     0495  1903               	btfsc	3,2
  1878     0496  2C98               	goto	u1571
  1879     0497  2C99               	goto	u1570
  1880     0498                     u1571:
  1881     0498  2C9E               	goto	l1458
  1882     0499                     u1570:
  1883     0499                     l1456:
  1884     0499  09A2               	comf	___awmod@dividend,f
  1885     049A  09A3               	comf	___awmod@dividend+1,f
  1886     049B  0AA2               	incf	___awmod@dividend,f
  1887     049C  1903               	skipnz
  1888     049D  0AA3               	incf	___awmod@dividend+1,f
  1889     049E                     l1458:
  1890     049E  0823               	movf	___awmod@dividend+1,w
  1891     049F  00A1               	movwf	?___awmod+1
  1892     04A0  0822               	movf	___awmod@dividend,w
  1893     04A1  00A0               	movwf	?___awmod
  1894     04A2                     l400:
  1895     04A2  0008               	return
  1896     04A3                     __end_of___awmod:
  1897                           
  1898                           	psect	text3
  1899     03F0                     __ptext3:	
  1900 ;; *************** function ___awdiv *****************
  1901 ;; Defined at:
  1902 ;;		line 5 in file "C:\Program Files\Microchip\xc8\v2.41\pic\sources\c99\common\awdiv.c"
  1903 ;; Parameters:    Size  Location     Type
  1904 ;;  divisor         2    1[COMMON] int 
  1905 ;;  dividend        2    3[COMMON] int 
  1906 ;; Auto vars:     Size  Location     Type
  1907 ;;  quotient        2    8[COMMON] int 
  1908 ;;  sign            1    7[COMMON] unsigned char 
  1909 ;;  counter         1    6[COMMON] unsigned char 
  1910 ;; Return value:  Size  Location     Type
  1911 ;;                  2    1[COMMON] int 
  1912 ;; Registers used:
  1913 ;;		wreg, status,2, status,0
  1914 ;; Tracked objects:
  1915 ;;		On entry : 0/0
  1916 ;;		On exit  : 0/0
  1917 ;;		Unchanged: 0/0
  1918 ;; Data sizes:     COMMON   BANK0   BANK1   BANK2   BANK3   BANK4   BANK5   BANK6
  1919 ;;      Params:         4       0       0       0       0       0       0       0
  1920 ;;      Locals:         4       0       0       0       0       0       0       0
  1921 ;;      Temps:          1       0       0       0       0       0       0       0
  1922 ;;      Totals:         9       0       0       0       0       0       0       0
  1923 ;;Total ram usage:        9 bytes
  1924 ;; Hardware stack levels used: 1
  1925 ;; Hardware stack levels required when called: 2
  1926 ;; This function calls:
  1927 ;;		Nothing
  1928 ;; This function is called by:
  1929 ;;		_div_num
  1930 ;; This function uses a non-reentrant model
  1931 ;;
  1932                           
  1933     03F0                     ___awdiv:	
  1934                           ;psect for function ___awdiv
  1935                           
  1936     03F0                     l1058:	
  1937                           ;incstack = 0
  1938                           ; Regs used in ___awdiv: [wreg+status,2+status,0]
  1939                           
  1940     03F0  01F7               	clrf	___awdiv@sign
  1941     03F1                     l1060:
  1942     03F1  1FF2               	btfss	___awdiv@divisor+1,7
  1943     03F2  2BF4               	goto	u751
  1944     03F3  2BF5               	goto	u750
  1945     03F4                     u751:
  1946     03F4  2BFC               	goto	l1066
  1947     03F5                     u750:
  1948     03F5                     l1062:
  1949     03F5  09F1               	comf	___awdiv@divisor,f
  1950     03F6  09F2               	comf	___awdiv@divisor+1,f
  1951     03F7  0AF1               	incf	___awdiv@divisor,f
  1952     03F8  1903               	skipnz
  1953     03F9  0AF2               	incf	___awdiv@divisor+1,f
  1954     03FA                     l1064:
  1955     03FA  01F7               	clrf	___awdiv@sign
  1956     03FB  0AF7               	incf	___awdiv@sign,f
  1957     03FC                     l1066:
  1958     03FC  1FF4               	btfss	___awdiv@dividend+1,7
  1959     03FD  2BFF               	goto	u761
  1960     03FE  2C00               	goto	u760
  1961     03FF                     u761:
  1962     03FF  2C09               	goto	l1072
  1963     0400                     u760:
  1964     0400                     l1068:
  1965     0400  09F3               	comf	___awdiv@dividend,f
  1966     0401  09F4               	comf	___awdiv@dividend+1,f
  1967     0402  0AF3               	incf	___awdiv@dividend,f
  1968     0403  1903               	skipnz
  1969     0404  0AF4               	incf	___awdiv@dividend+1,f
  1970     0405                     l1070:
  1971     0405  3001               	movlw	1
  1972     0406  00F5               	movwf	??___awdiv
  1973     0407  0875               	movf	??___awdiv,w
  1974     0408  06F7               	xorwf	___awdiv@sign,f
  1975     0409                     l1072:
  1976     0409  01F8               	clrf	___awdiv@quotient
  1977     040A  01F9               	clrf	___awdiv@quotient+1
  1978     040B                     l1074:
  1979     040B  0871               	movf	___awdiv@divisor,w
  1980     040C  0472               	iorwf	___awdiv@divisor+1,w
  1981     040D  1903               	btfsc	3,2
  1982     040E  2C10               	goto	u771
  1983     040F  2C11               	goto	u770
  1984     0410                     u771:
  1985     0410  2C40               	goto	l1094
  1986     0411                     u770:
  1987     0411                     l1076:
  1988     0411  01F6               	clrf	___awdiv@counter
  1989     0412  0AF6               	incf	___awdiv@counter,f
  1990     0413  2C1D               	goto	l1082
  1991     0414                     l1078:
  1992     0414  3001               	movlw	1
  1993     0415                     u785:
  1994     0415  35F1               	lslf	___awdiv@divisor,f
  1995     0416  0DF2               	rlf	___awdiv@divisor+1,f
  1996     0417  0B89               	decfsz	9,f
  1997     0418  2C15               	goto	u785
  1998     0419                     l1080:
  1999     0419  3001               	movlw	1
  2000     041A  00F5               	movwf	??___awdiv
  2001     041B  0875               	movf	??___awdiv,w
  2002     041C  07F6               	addwf	___awdiv@counter,f
  2003     041D                     l1082:
  2004     041D  1FF2               	btfss	___awdiv@divisor+1,7
  2005     041E  2C20               	goto	u791
  2006     041F  2C21               	goto	u790
  2007     0420                     u791:
  2008     0420  2C14               	goto	l1078
  2009     0421                     u790:
  2010     0421                     l1084:
  2011     0421  3001               	movlw	1
  2012     0422                     u805:
  2013     0422  35F8               	lslf	___awdiv@quotient,f
  2014     0423  0DF9               	rlf	___awdiv@quotient+1,f
  2015     0424  0B89               	decfsz	9,f
  2016     0425  2C22               	goto	u805
  2017     0426  0872               	movf	___awdiv@divisor+1,w
  2018     0427  0274               	subwf	___awdiv@dividend+1,w
  2019     0428  1D03               	skipz
  2020     0429  2C2C               	goto	u815
  2021     042A  0871               	movf	___awdiv@divisor,w
  2022     042B  0273               	subwf	___awdiv@dividend,w
  2023     042C                     u815:
  2024     042C  1C03               	skipc
  2025     042D  2C2F               	goto	u811
  2026     042E  2C30               	goto	u810
  2027     042F                     u811:
  2028     042F  2C35               	goto	l1090
  2029     0430                     u810:
  2030     0430                     l1086:
  2031     0430  0871               	movf	___awdiv@divisor,w
  2032     0431  02F3               	subwf	___awdiv@dividend,f
  2033     0432  0872               	movf	___awdiv@divisor+1,w
  2034     0433  3BF4               	subwfb	___awdiv@dividend+1,f
  2035     0434                     l1088:
  2036     0434  1478               	bsf	___awdiv@quotient,0
  2037     0435                     l1090:
  2038     0435  3001               	movlw	1
  2039     0436                     u825:
  2040     0436  36F2               	lsrf	___awdiv@divisor+1,f
  2041     0437  0CF1               	rrf	___awdiv@divisor,f
  2042     0438  0B89               	decfsz	9,f
  2043     0439  2C36               	goto	u825
  2044     043A                     l1092:
  2045     043A  3001               	movlw	1
  2046     043B  02F6               	subwf	___awdiv@counter,f
  2047     043C  1D03               	btfss	3,2
  2048     043D  2C3F               	goto	u831
  2049     043E  2C40               	goto	u830
  2050     043F                     u831:
  2051     043F  2C21               	goto	l1084
  2052     0440                     u830:
  2053     0440                     l1094:
  2054     0440  0877               	movf	___awdiv@sign,w
  2055     0441  1903               	btfsc	3,2
  2056     0442  2C44               	goto	u841
  2057     0443  2C45               	goto	u840
  2058     0444                     u841:
  2059     0444  2C4A               	goto	l1098
  2060     0445                     u840:
  2061     0445                     l1096:
  2062     0445  09F8               	comf	___awdiv@quotient,f
  2063     0446  09F9               	comf	___awdiv@quotient+1,f
  2064     0447  0AF8               	incf	___awdiv@quotient,f
  2065     0448  1903               	skipnz
  2066     0449  0AF9               	incf	___awdiv@quotient+1,f
  2067     044A                     l1098:
  2068     044A  0879               	movf	___awdiv@quotient+1,w
  2069     044B  00F2               	movwf	?___awdiv+1
  2070     044C  0878               	movf	___awdiv@quotient,w
  2071     044D  00F1               	movwf	?___awdiv
  2072     044E                     l387:
  2073     044E  0008               	return
  2074     044F                     __end_of___awdiv:
  2075                           
  2076                           	psect	text4
  2077     01CE                     __ptext4:	
  2078 ;; *************** function ___xxtofl *****************
  2079 ;; Defined at:
  2080 ;;		line 10 in file "C:\Program Files\Microchip\xc8\v2.41\pic\sources\c99\common\xxtofl.c"
  2081 ;; Parameters:    Size  Location     Type
  2082 ;;  sign            1    wreg     unsigned char 
  2083 ;;  val             4    1[COMMON] long 
  2084 ;; Auto vars:     Size  Location     Type
  2085 ;;  sign            1    0[BANK0 ] unsigned char 
  2086 ;;  arg             4    2[BANK0 ] unsigned long 
  2087 ;;  exp             1    1[BANK0 ] unsigned char 
  2088 ;; Return value:  Size  Location     Type
  2089 ;;                  4    1[COMMON] unsigned char 
  2090 ;; Registers used:
  2091 ;;		wreg, status,2, status,0
  2092 ;; Tracked objects:
  2093 ;;		On entry : 0/0
  2094 ;;		On exit  : 0/0
  2095 ;;		Unchanged: 0/0
  2096 ;; Data sizes:     COMMON   BANK0   BANK1   BANK2   BANK3   BANK4   BANK5   BANK6
  2097 ;;      Params:         4       0       0       0       0       0       0       0
  2098 ;;      Locals:         0       6       0       0       0       0       0       0
  2099 ;;      Temps:          4       0       0       0       0       0       0       0
  2100 ;;      Totals:         8       6       0       0       0       0       0       0
  2101 ;;Total ram usage:       14 bytes
  2102 ;; Hardware stack levels used: 1
  2103 ;; Hardware stack levels required when called: 2
  2104 ;; This function calls:
  2105 ;;		Nothing
  2106 ;; This function is called by:
  2107 ;;		_main
  2108 ;; This function uses a non-reentrant model
  2109 ;;
  2110                           
  2111     01CE                     ___xxtofl:	
  2112                           ;psect for function ___xxtofl
  2113                           
  2114                           
  2115                           ;incstack = 0
  2116                           ; Regs used in ___xxtofl: [wreg+status,2+status,0]
  2117                           ;___xxtofl@sign stored from wreg
  2118     01CE  0020               	movlb	0	; select bank0
  2119     01CF  00A0               	movwf	___xxtofl@sign
  2120     01D0                     l1332:
  2121     01D0  0820               	movf	___xxtofl@sign,w
  2122     01D1  1903               	btfsc	3,2
  2123     01D2  29D4               	goto	u1341
  2124     01D3  29D5               	goto	u1340
  2125     01D4                     u1341:
  2126     01D4  29E9               	goto	l1338
  2127     01D5                     u1340:
  2128     01D5                     l1334:
  2129     01D5  1FF4               	btfss	___xxtofl@val+3,7
  2130     01D6  29D8               	goto	u1351
  2131     01D7  29D9               	goto	u1350
  2132     01D8                     u1351:
  2133     01D8  29E9               	goto	l1338
  2134     01D9                     u1350:
  2135     01D9                     l1336:
  2136     01D9  0971               	comf	___xxtofl@val,w
  2137     01DA  00A2               	movwf	___xxtofl@arg
  2138     01DB  0972               	comf	___xxtofl@val+1,w
  2139     01DC  00A3               	movwf	___xxtofl@arg+1
  2140     01DD  0973               	comf	___xxtofl@val+2,w
  2141     01DE  00A4               	movwf	___xxtofl@arg+2
  2142     01DF  0974               	comf	___xxtofl@val+3,w
  2143     01E0  00A5               	movwf	___xxtofl@arg+3
  2144     01E1  0AA2               	incf	___xxtofl@arg,f
  2145     01E2  1903               	skipnz
  2146     01E3  0AA3               	incf	___xxtofl@arg+1,f
  2147     01E4  1903               	skipnz
  2148     01E5  0AA4               	incf	___xxtofl@arg+2,f
  2149     01E6  1903               	skipnz
  2150     01E7  0AA5               	incf	___xxtofl@arg+3,f
  2151     01E8  29F1               	goto	l675
  2152     01E9                     l1338:
  2153     01E9  0874               	movf	___xxtofl@val+3,w
  2154     01EA  00A5               	movwf	___xxtofl@arg+3
  2155     01EB  0873               	movf	___xxtofl@val+2,w
  2156     01EC  00A4               	movwf	___xxtofl@arg+2
  2157     01ED  0872               	movf	___xxtofl@val+1,w
  2158     01EE  00A3               	movwf	___xxtofl@arg+1
  2159     01EF  0871               	movf	___xxtofl@val,w
  2160     01F0  00A2               	movwf	___xxtofl@arg
  2161     01F1                     l675:
  2162     01F1  0874               	movf	___xxtofl@val+3,w
  2163     01F2  0473               	iorwf	___xxtofl@val+2,w
  2164     01F3  0472               	iorwf	___xxtofl@val+1,w
  2165     01F4  0471               	iorwf	___xxtofl@val,w
  2166     01F5  1D03               	skipz
  2167     01F6  29F8               	goto	u1361
  2168     01F7  29F9               	goto	u1360
  2169     01F8                     u1361:
  2170     01F8  2A02               	goto	l1344
  2171     01F9                     u1360:
  2172     01F9                     l1340:
  2173     01F9  3000               	movlw	0
  2174     01FA  00F4               	movwf	?___xxtofl+3
  2175     01FB  3000               	movlw	0
  2176     01FC  00F3               	movwf	?___xxtofl+2
  2177     01FD  3000               	movlw	0
  2178     01FE  00F2               	movwf	?___xxtofl+1
  2179     01FF  3000               	movlw	0
  2180     0200  00F1               	movwf	?___xxtofl
  2181     0201  2A78               	goto	l677
  2182     0202                     l1344:
  2183     0202  3096               	movlw	150
  2184     0203  00A1               	movwf	___xxtofl@exp
  2185     0204  2A10               	goto	l1348
  2186     0205                     l1346:
  2187     0205  3001               	movlw	1
  2188     0206  00F5               	movwf	??___xxtofl
  2189     0207  0875               	movf	??___xxtofl,w
  2190     0208  07A1               	addwf	___xxtofl@exp,f
  2191     0209  3001               	movlw	1
  2192     020A                     u1375:
  2193     020A  36A5               	lsrf	___xxtofl@arg+3,f
  2194     020B  0CA4               	rrf	___xxtofl@arg+2,f
  2195     020C  0CA3               	rrf	___xxtofl@arg+1,f
  2196     020D  0CA2               	rrf	___xxtofl@arg,f
  2197     020E  0B89               	decfsz	9,f
  2198     020F  2A0A               	goto	u1375
  2199     0210                     l1348:
  2200     0210  30FE               	movlw	254
  2201     0211  0525               	andwf	___xxtofl@arg+3,w
  2202     0212  1D03               	btfss	3,2
  2203     0213  2A15               	goto	u1381
  2204     0214  2A16               	goto	u1380
  2205     0215                     u1381:
  2206     0215  2A05               	goto	l1346
  2207     0216                     u1380:
  2208     0216  2A2A               	goto	l681
  2209     0217                     l1350:
  2210     0217  3001               	movlw	1
  2211     0218  00F5               	movwf	??___xxtofl
  2212     0219  0875               	movf	??___xxtofl,w
  2213     021A  07A1               	addwf	___xxtofl@exp,f
  2214     021B                     l1352:
  2215     021B  3001               	movlw	1
  2216     021C  07A2               	addwf	___xxtofl@arg,f
  2217     021D  3000               	movlw	0
  2218     021E  3DA3               	addwfc	___xxtofl@arg+1,f
  2219     021F  3000               	movlw	0
  2220     0220  3DA4               	addwfc	___xxtofl@arg+2,f
  2221     0221  3000               	movlw	0
  2222     0222  3DA5               	addwfc	___xxtofl@arg+3,f
  2223     0223                     l1354:
  2224     0223  3001               	movlw	1
  2225     0224                     u1395:
  2226     0224  36A5               	lsrf	___xxtofl@arg+3,f
  2227     0225  0CA4               	rrf	___xxtofl@arg+2,f
  2228     0226  0CA3               	rrf	___xxtofl@arg+1,f
  2229     0227  0CA2               	rrf	___xxtofl@arg,f
  2230     0228  0B89               	decfsz	9,f
  2231     0229  2A24               	goto	u1395
  2232     022A                     l681:
  2233     022A  30FF               	movlw	255
  2234     022B  0525               	andwf	___xxtofl@arg+3,w
  2235     022C  1D03               	btfss	3,2
  2236     022D  2A2F               	goto	u1401
  2237     022E  2A30               	goto	u1400
  2238     022F                     u1401:
  2239     022F  2A17               	goto	l1350
  2240     0230                     u1400:
  2241     0230  2A3A               	goto	l1358
  2242     0231                     l1356:
  2243     0231  3001               	movlw	1
  2244     0232  02A1               	subwf	___xxtofl@exp,f
  2245     0233  3001               	movlw	1
  2246     0234                     u1415:
  2247     0234  35A2               	lslf	___xxtofl@arg,f
  2248     0235  0DA3               	rlf	___xxtofl@arg+1,f
  2249     0236  0DA4               	rlf	___xxtofl@arg+2,f
  2250     0237  0DA5               	rlf	___xxtofl@arg+3,f
  2251     0238  0B89               	decfsz	9,f
  2252     0239  2A34               	goto	u1415
  2253     023A                     l1358:
  2254     023A  1BA4               	btfsc	___xxtofl@arg+2,7
  2255     023B  2A3D               	goto	u1421
  2256     023C  2A3E               	goto	u1420
  2257     023D                     u1421:
  2258     023D  2A44               	goto	l688
  2259     023E                     u1420:
  2260     023E                     l1360:
  2261     023E  3002               	movlw	2
  2262     023F  0221               	subwf	___xxtofl@exp,w
  2263     0240  1803               	skipnc
  2264     0241  2A43               	goto	u1431
  2265     0242  2A44               	goto	u1430
  2266     0243                     u1431:
  2267     0243  2A31               	goto	l1356
  2268     0244                     u1430:
  2269     0244                     l688:
  2270     0244  1821               	btfsc	___xxtofl@exp,0
  2271     0245  2A47               	goto	u1441
  2272     0246  2A48               	goto	u1440
  2273     0247                     u1441:
  2274     0247  2A50               	goto	l689
  2275     0248                     u1440:
  2276     0248                     l1362:
  2277     0248  30FF               	movlw	255
  2278     0249  05A2               	andwf	___xxtofl@arg,f
  2279     024A  30FF               	movlw	255
  2280     024B  05A3               	andwf	___xxtofl@arg+1,f
  2281     024C  307F               	movlw	127
  2282     024D  05A4               	andwf	___xxtofl@arg+2,f
  2283     024E  30FF               	movlw	255
  2284     024F  05A5               	andwf	___xxtofl@arg+3,f
  2285     0250                     l689:
  2286     0250  1003               	clrc
  2287     0251  0CA1               	rrf	___xxtofl@exp,f
  2288     0252                     l1364:
  2289     0252  0821               	movf	___xxtofl@exp,w
  2290     0253  00F5               	movwf	??___xxtofl
  2291     0254  01F6               	clrf	??___xxtofl+1
  2292     0255  01F7               	clrf	??___xxtofl+2
  2293     0256  01F8               	clrf	??___xxtofl+3
  2294     0257  3018               	movlw	24
  2295     0258                     u1455:
  2296     0258  35F5               	lslf	??___xxtofl,f
  2297     0259  0DF6               	rlf	??___xxtofl+1,f
  2298     025A  0DF7               	rlf	??___xxtofl+2,f
  2299     025B  0DF8               	rlf	??___xxtofl+3,f
  2300     025C                     u1450:
  2301     025C  0B89               	decfsz	9,f
  2302     025D  2A58               	goto	u1455
  2303     025E  0875               	movf	??___xxtofl,w
  2304     025F  04A2               	iorwf	___xxtofl@arg,f
  2305     0260  0876               	movf	??___xxtofl+1,w
  2306     0261  04A3               	iorwf	___xxtofl@arg+1,f
  2307     0262  0877               	movf	??___xxtofl+2,w
  2308     0263  04A4               	iorwf	___xxtofl@arg+2,f
  2309     0264  0878               	movf	??___xxtofl+3,w
  2310     0265  04A5               	iorwf	___xxtofl@arg+3,f
  2311     0266                     l1366:
  2312     0266  0820               	movf	___xxtofl@sign,w
  2313     0267  1903               	btfsc	3,2
  2314     0268  2A6A               	goto	u1461
  2315     0269  2A6B               	goto	u1460
  2316     026A                     u1461:
  2317     026A  2A70               	goto	l1372
  2318     026B                     u1460:
  2319     026B                     l1368:
  2320     026B  1FF4               	btfss	___xxtofl@val+3,7
  2321     026C  2A6E               	goto	u1471
  2322     026D  2A6F               	goto	u1470
  2323     026E                     u1471:
  2324     026E  2A70               	goto	l1372
  2325     026F                     u1470:
  2326     026F                     l1370:
  2327     026F  17A5               	bsf	___xxtofl@arg+3,7
  2328     0270                     l1372:
  2329     0270  0825               	movf	___xxtofl@arg+3,w
  2330     0271  00F4               	movwf	?___xxtofl+3
  2331     0272  0824               	movf	___xxtofl@arg+2,w
  2332     0273  00F3               	movwf	?___xxtofl+2
  2333     0274  0823               	movf	___xxtofl@arg+1,w
  2334     0275  00F2               	movwf	?___xxtofl+1
  2335     0276  0822               	movf	___xxtofl@arg,w
  2336     0277  00F1               	movwf	?___xxtofl
  2337     0278                     l677:
  2338     0278  0008               	return
  2339     0279                     __end_of___xxtofl:
  2340                           
  2341                           	psect	text5
  2342     0311                     __ptext5:	
  2343 ;; *************** function ___fltol *****************
  2344 ;; Defined at:
  2345 ;;		line 43 in file "C:\Program Files\Microchip\xc8\v2.41\pic\sources\c99\common\fltol.c"
  2346 ;; Parameters:    Size  Location     Type
  2347 ;;  f1              4   32[BANK0 ] unsigned char 
  2348 ;; Auto vars:     Size  Location     Type
  2349 ;;  exp1            1   10[COMMON] unsigned char 
  2350 ;;  sign1           1    9[COMMON] unsigned char 
  2351 ;; Return value:  Size  Location     Type
  2352 ;;                  4   32[BANK0 ] long 
  2353 ;; Registers used:
  2354 ;;		wreg, status,2, status,0
  2355 ;; Tracked objects:
  2356 ;;		On entry : 0/0
  2357 ;;		On exit  : 0/0
  2358 ;;		Unchanged: 0/0
  2359 ;; Data sizes:     COMMON   BANK0   BANK1   BANK2   BANK3   BANK4   BANK5   BANK6
  2360 ;;      Params:         0       4       0       0       0       0       0       0
  2361 ;;      Locals:         2       0       0       0       0       0       0       0
  2362 ;;      Temps:          0       4       0       0       0       0       0       0
  2363 ;;      Totals:         2       8       0       0       0       0       0       0
  2364 ;;Total ram usage:       10 bytes
  2365 ;; Hardware stack levels used: 1
  2366 ;; Hardware stack levels required when called: 2
  2367 ;; This function calls:
  2368 ;;		Nothing
  2369 ;; This function is called by:
  2370 ;;		_main
  2371 ;; This function uses a non-reentrant model
  2372 ;;
  2373                           
  2374     0311                     ___fltol:	
  2375                           ;psect for function ___fltol
  2376                           
  2377     0311                     l1464:	
  2378                           ;incstack = 0
  2379                           ; Regs used in ___fltol: [wreg+status,2+status,0]
  2380                           
  2381     0311  1003               	clrc
  2382     0312  0020               	movlb	0	; select bank0
  2383     0313  0D42               	rlf	___fltol@f1+2,w
  2384     0314  0D43               	rlf	___fltol@f1+3,w
  2385     0315  00FA               	movwf	___fltol@exp1
  2386     0316  087A               	movf	___fltol@exp1,w
  2387     0317  1D03               	btfss	3,2
  2388     0318  2B1A               	goto	u1581
  2389     0319  2B1B               	goto	u1580
  2390     031A                     u1581:
  2391     031A  2B24               	goto	l1470
  2392     031B                     u1580:
  2393     031B                     l1466:
  2394     031B  3000               	movlw	0
  2395     031C  00C3               	movwf	?___fltol+3
  2396     031D  3000               	movlw	0
  2397     031E  00C2               	movwf	?___fltol+2
  2398     031F  3000               	movlw	0
  2399     0320  00C1               	movwf	?___fltol+1
  2400     0321  3000               	movlw	0
  2401     0322  00C0               	movwf	?___fltol
  2402     0323  2B81               	goto	l428
  2403     0324                     l1470:
  2404     0324  0840               	movf	___fltol@f1,w
  2405     0325  00C4               	movwf	??___fltol
  2406     0326  0841               	movf	___fltol@f1+1,w
  2407     0327  00C5               	movwf	??___fltol+1
  2408     0328  0842               	movf	___fltol@f1+2,w
  2409     0329  00C6               	movwf	??___fltol+2
  2410     032A  0843               	movf	___fltol@f1+3,w
  2411     032B  00C7               	movwf	??___fltol+3
  2412     032C  301F               	movlw	31
  2413     032D                     u1595:
  2414     032D  36C7               	lsrf	??___fltol+3,f
  2415     032E  0CC6               	rrf	??___fltol+2,f
  2416     032F  0CC5               	rrf	??___fltol+1,f
  2417     0330  0CC4               	rrf	??___fltol,f
  2418     0331                     u1590:
  2419     0331  0B89               	decfsz	9,f
  2420     0332  2B2D               	goto	u1595
  2421     0333  0844               	movf	??___fltol,w
  2422     0334  00F9               	movwf	___fltol@sign1
  2423     0335                     l1472:
  2424     0335  17C2               	bsf	___fltol@f1+2,7
  2425     0336                     l1474:
  2426     0336  30FF               	movlw	255
  2427     0337  05C0               	andwf	___fltol@f1,f
  2428     0338  30FF               	movlw	255
  2429     0339  05C1               	andwf	___fltol@f1+1,f
  2430     033A  30FF               	movlw	255
  2431     033B  05C2               	andwf	___fltol@f1+2,f
  2432     033C  3000               	movlw	0
  2433     033D  05C3               	andwf	___fltol@f1+3,f
  2434     033E                     l1476:
  2435     033E  3096               	movlw	150
  2436     033F  02FA               	subwf	___fltol@exp1,f
  2437     0340                     l1478:
  2438     0340  1FFA               	btfss	___fltol@exp1,7
  2439     0341  2B43               	goto	u1601
  2440     0342  2B44               	goto	u1600
  2441     0343                     u1601:
  2442     0343  2B5C               	goto	l1488
  2443     0344                     u1600:
  2444     0344                     l1480:
  2445     0344  087A               	movf	___fltol@exp1,w
  2446     0345  3A80               	xorlw	128
  2447     0346  3E97               	addlw	151
  2448     0347  1803               	skipnc
  2449     0348  2B4A               	goto	u1611
  2450     0349  2B4B               	goto	u1610
  2451     034A                     u1611:
  2452     034A  2B4C               	goto	l1486
  2453     034B                     u1610:
  2454     034B  2B1B               	goto	l1466
  2455     034C                     l1486:
  2456     034C  3001               	movlw	1
  2457     034D                     u1625:
  2458     034D  36C3               	lsrf	___fltol@f1+3,f
  2459     034E  0CC2               	rrf	___fltol@f1+2,f
  2460     034F  0CC1               	rrf	___fltol@f1+1,f
  2461     0350  0CC0               	rrf	___fltol@f1,f
  2462     0351  0B89               	decfsz	9,f
  2463     0352  2B4D               	goto	u1625
  2464     0353  3001               	movlw	1
  2465     0354  00C4               	movwf	??___fltol
  2466     0355  0844               	movf	??___fltol,w
  2467     0356  07FA               	addwf	___fltol@exp1,f
  2468     0357  1D03               	btfss	3,2
  2469     0358  2B5A               	goto	u1631
  2470     0359  2B5B               	goto	u1630
  2471     035A                     u1631:
  2472     035A  2B4C               	goto	l1486
  2473     035B                     u1630:
  2474     035B  2B71               	goto	l1496
  2475     035C                     l1488:
  2476     035C  3020               	movlw	32
  2477     035D  027A               	subwf	___fltol@exp1,w
  2478     035E  1C03               	skipc
  2479     035F  2B61               	goto	u1641
  2480     0360  2B62               	goto	u1640
  2481     0361                     u1641:
  2482     0361  2B6C               	goto	l435
  2483     0362                     u1640:
  2484     0362  2B1B               	goto	l1466
  2485     0363                     l1494:
  2486     0363  3001               	movlw	1
  2487     0364                     u1655:
  2488     0364  35C0               	lslf	___fltol@f1,f
  2489     0365  0DC1               	rlf	___fltol@f1+1,f
  2490     0366  0DC2               	rlf	___fltol@f1+2,f
  2491     0367  0DC3               	rlf	___fltol@f1+3,f
  2492     0368  0B89               	decfsz	9,f
  2493     0369  2B64               	goto	u1655
  2494     036A  3001               	movlw	1
  2495     036B  02FA               	subwf	___fltol@exp1,f
  2496     036C                     l435:
  2497     036C  087A               	movf	___fltol@exp1,w
  2498     036D  1D03               	btfss	3,2
  2499     036E  2B70               	goto	u1661
  2500     036F  2B71               	goto	u1660
  2501     0370                     u1661:
  2502     0370  2B63               	goto	l1494
  2503     0371                     u1660:
  2504     0371                     l1496:
  2505     0371  0879               	movf	___fltol@sign1,w
  2506     0372  1903               	btfsc	3,2
  2507     0373  2B75               	goto	u1671
  2508     0374  2B76               	goto	u1670
  2509     0375                     u1671:
  2510     0375  2B81               	goto	l438
  2511     0376                     u1670:
  2512     0376                     l1498:
  2513     0376  09C0               	comf	___fltol@f1,f
  2514     0377  09C1               	comf	___fltol@f1+1,f
  2515     0378  09C2               	comf	___fltol@f1+2,f
  2516     0379  09C3               	comf	___fltol@f1+3,f
  2517     037A  0AC0               	incf	___fltol@f1,f
  2518     037B  1903               	skipnz
  2519     037C  0AC1               	incf	___fltol@f1+1,f
  2520     037D  1903               	skipnz
  2521     037E  0AC2               	incf	___fltol@f1+2,f
  2522     037F  1903               	skipnz
  2523     0380  0AC3               	incf	___fltol@f1+3,f
  2524     0381                     l438:
  2525     0381                     l428:
  2526     0381  0008               	return
  2527     0382                     __end_of___fltol:
  2528                           
  2529                           	psect	text6
  2530     0024                     __ptext6:	
  2531 ;; *************** function ___fldiv *****************
  2532 ;; Defined at:
  2533 ;;		line 8 in file "C:\Program Files\Microchip\xc8\v2.41\pic\sources\c99\common\sprcdiv.c"
  2534 ;; Parameters:    Size  Location     Type
  2535 ;;  a               4    6[BANK0 ] long 
  2536 ;;  b               4   10[BANK0 ] long 
  2537 ;; Auto vars:     Size  Location     Type
  2538 ;;  grs             4   26[BANK0 ] unsigned long 
  2539 ;;  rem             4   19[BANK0 ] unsigned long 
  2540 ;;  new_exp         2   24[BANK0 ] int 
  2541 ;;  aexp            1   31[BANK0 ] unsigned char 
  2542 ;;  bexp            1   30[BANK0 ] unsigned char 
  2543 ;;  sign            1   23[BANK0 ] unsigned char 
  2544 ;; Return value:  Size  Location     Type
  2545 ;;                  4    6[BANK0 ] unsigned char 
  2546 ;; Registers used:
  2547 ;;		wreg, status,2, status,0
  2548 ;; Tracked objects:
  2549 ;;		On entry : 0/0
  2550 ;;		On exit  : 0/0
  2551 ;;		Unchanged: 0/0
  2552 ;; Data sizes:     COMMON   BANK0   BANK1   BANK2   BANK3   BANK4   BANK5   BANK6
  2553 ;;      Params:         0       8       0       0       0       0       0       0
  2554 ;;      Locals:         0      13       0       0       0       0       0       0
  2555 ;;      Temps:          0       5       0       0       0       0       0       0
  2556 ;;      Totals:         0      26       0       0       0       0       0       0
  2557 ;;Total ram usage:       26 bytes
  2558 ;; Hardware stack levels used: 1
  2559 ;; Hardware stack levels required when called: 2
  2560 ;; This function calls:
  2561 ;;		Nothing
  2562 ;; This function is called by:
  2563 ;;		_main
  2564 ;; This function uses a non-reentrant model
  2565 ;;
  2566                           
  2567     0024                     ___fldiv:	
  2568                           ;psect for function ___fldiv
  2569                           
  2570     0024                     l1192:	
  2571                           ;incstack = 0
  2572                           ; Regs used in ___fldiv: [wreg+status,2+status,0]
  2573                           
  2574     0024  0020               	movlb	0	; select bank0
  2575     0025  082D               	movf	___fldiv@b+3,w
  2576     0026  3980               	andlw	128
  2577     0027  00B7               	movwf	___fldiv@sign
  2578     0028                     l1194:
  2579     0028  352D               	lslf	___fldiv@b+3,w
  2580     0029  00BE               	movwf	___fldiv@bexp
  2581     002A                     l1196:
  2582     002A  1FAC               	btfss	___fldiv@b+2,7
  2583     002B  282D               	goto	u1051
  2584     002C  282E               	goto	u1050
  2585     002D                     u1051:
  2586     002D  282F               	goto	l1200
  2587     002E                     u1050:
  2588     002E                     l1198:
  2589     002E  143E               	bsf	___fldiv@bexp,0
  2590     002F                     l1200:
  2591     002F  083E               	movf	___fldiv@bexp,w
  2592     0030  1903               	btfsc	3,2
  2593     0031  2833               	goto	u1061
  2594     0032  2834               	goto	u1060
  2595     0033                     u1061:
  2596     0033  2844               	goto	l1210
  2597     0034                     u1060:
  2598     0034                     l1202:
  2599     0034  0A3E               	incf	___fldiv@bexp,w
  2600     0035  1D03               	btfss	3,2
  2601     0036  2838               	goto	u1071
  2602     0037  2839               	goto	u1070
  2603     0038                     u1071:
  2604     0038  2841               	goto	l1206
  2605     0039                     u1070:
  2606     0039                     l1204:
  2607     0039  3000               	movlw	0
  2608     003A  00AD               	movwf	___fldiv@b+3
  2609     003B  3000               	movlw	0
  2610     003C  00AC               	movwf	___fldiv@b+2
  2611     003D  3000               	movlw	0
  2612     003E  00AB               	movwf	___fldiv@b+1
  2613     003F  3000               	movlw	0
  2614     0040  00AA               	movwf	___fldiv@b
  2615     0041                     l1206:
  2616     0041  17AC               	bsf	___fldiv@b+2,7
  2617     0042                     l1208:
  2618     0042  01AD               	clrf	___fldiv@b+3
  2619     0043  284C               	goto	l1212
  2620     0044                     l1210:
  2621     0044  3000               	movlw	0
  2622     0045  00AD               	movwf	___fldiv@b+3
  2623     0046  3000               	movlw	0
  2624     0047  00AC               	movwf	___fldiv@b+2
  2625     0048  3000               	movlw	0
  2626     0049  00AB               	movwf	___fldiv@b+1
  2627     004A  3000               	movlw	0
  2628     004B  00AA               	movwf	___fldiv@b
  2629     004C                     l1212:
  2630     004C  0829               	movf	___fldiv@a+3,w
  2631     004D  3980               	andlw	128
  2632     004E  00AE               	movwf	??___fldiv
  2633     004F  082E               	movf	??___fldiv,w
  2634     0050  06B7               	xorwf	___fldiv@sign,f
  2635     0051                     l1214:
  2636     0051  3529               	lslf	___fldiv@a+3,w
  2637     0052  00BF               	movwf	___fldiv@aexp
  2638     0053                     l1216:
  2639     0053  1FA8               	btfss	___fldiv@a+2,7
  2640     0054  2856               	goto	u1081
  2641     0055  2857               	goto	u1080
  2642     0056                     u1081:
  2643     0056  2858               	goto	l1220
  2644     0057                     u1080:
  2645     0057                     l1218:
  2646     0057  143F               	bsf	___fldiv@aexp,0
  2647     0058                     l1220:
  2648     0058  083F               	movf	___fldiv@aexp,w
  2649     0059  1903               	btfsc	3,2
  2650     005A  285C               	goto	u1091
  2651     005B  285D               	goto	u1090
  2652     005C                     u1091:
  2653     005C  286D               	goto	l1230
  2654     005D                     u1090:
  2655     005D                     l1222:
  2656     005D  0A3F               	incf	___fldiv@aexp,w
  2657     005E  1D03               	btfss	3,2
  2658     005F  2861               	goto	u1101
  2659     0060  2862               	goto	u1100
  2660     0061                     u1101:
  2661     0061  286A               	goto	l1226
  2662     0062                     u1100:
  2663     0062                     l1224:
  2664     0062  3000               	movlw	0
  2665     0063  00A9               	movwf	___fldiv@a+3
  2666     0064  3000               	movlw	0
  2667     0065  00A8               	movwf	___fldiv@a+2
  2668     0066  3000               	movlw	0
  2669     0067  00A7               	movwf	___fldiv@a+1
  2670     0068  3000               	movlw	0
  2671     0069  00A6               	movwf	___fldiv@a
  2672     006A                     l1226:
  2673     006A  17A8               	bsf	___fldiv@a+2,7
  2674     006B                     l1228:
  2675     006B  01A9               	clrf	___fldiv@a+3
  2676     006C  2875               	goto	l591
  2677     006D                     l1230:
  2678     006D  3000               	movlw	0
  2679     006E  00A9               	movwf	___fldiv@a+3
  2680     006F  3000               	movlw	0
  2681     0070  00A8               	movwf	___fldiv@a+2
  2682     0071  3000               	movlw	0
  2683     0072  00A7               	movwf	___fldiv@a+1
  2684     0073  3000               	movlw	0
  2685     0074  00A6               	movwf	___fldiv@a
  2686     0075                     l591:
  2687     0075  0829               	movf	___fldiv@a+3,w
  2688     0076  0428               	iorwf	___fldiv@a+2,w
  2689     0077  0427               	iorwf	___fldiv@a+1,w
  2690     0078  0426               	iorwf	___fldiv@a,w
  2691     0079  1D03               	skipz
  2692     007A  287C               	goto	u1111
  2693     007B  287D               	goto	u1110
  2694     007C                     u1111:
  2695     007C  2896               	goto	l1240
  2696     007D                     u1110:
  2697     007D                     l1232:
  2698     007D  3000               	movlw	0
  2699     007E  00AD               	movwf	___fldiv@b+3
  2700     007F  3000               	movlw	0
  2701     0080  00AC               	movwf	___fldiv@b+2
  2702     0081  3000               	movlw	0
  2703     0082  00AB               	movwf	___fldiv@b+1
  2704     0083  3000               	movlw	0
  2705     0084  00AA               	movwf	___fldiv@b
  2706     0085  3080               	movlw	128
  2707     0086  04AC               	iorwf	___fldiv@b+2,f
  2708     0087  307F               	movlw	127
  2709     0088  04AD               	iorwf	___fldiv@b+3,f
  2710     0089                     l1234:
  2711     0089  0837               	movf	___fldiv@sign,w
  2712     008A  00AE               	movwf	??___fldiv
  2713     008B  082E               	movf	??___fldiv,w
  2714     008C  04AD               	iorwf	___fldiv@b+3,f
  2715     008D                     l1236:
  2716     008D  082D               	movf	___fldiv@b+3,w
  2717     008E  00A9               	movwf	?___fldiv+3
  2718     008F  082C               	movf	___fldiv@b+2,w
  2719     0090  00A8               	movwf	?___fldiv+2
  2720     0091  082B               	movf	___fldiv@b+1,w
  2721     0092  00A7               	movwf	?___fldiv+1
  2722     0093  082A               	movf	___fldiv@b,w
  2723     0094  00A6               	movwf	?___fldiv
  2724     0095  29CD               	goto	l593
  2725     0096                     l1240:
  2726     0096  083E               	movf	___fldiv@bexp,w
  2727     0097  1D03               	btfss	3,2
  2728     0098  289A               	goto	u1121
  2729     0099  289B               	goto	u1120
  2730     009A                     u1121:
  2731     009A  28A4               	goto	l1246
  2732     009B                     u1120:
  2733     009B                     l1242:
  2734     009B  3000               	movlw	0
  2735     009C  00A9               	movwf	?___fldiv+3
  2736     009D  3000               	movlw	0
  2737     009E  00A8               	movwf	?___fldiv+2
  2738     009F  3000               	movlw	0
  2739     00A0  00A7               	movwf	?___fldiv+1
  2740     00A1  3000               	movlw	0
  2741     00A2  00A6               	movwf	?___fldiv
  2742     00A3  29CD               	goto	l593
  2743     00A4                     l1246:
  2744     00A4  083E               	movf	___fldiv@bexp,w
  2745     00A5  00AE               	movwf	??___fldiv
  2746     00A6  01AF               	clrf	??___fldiv+1
  2747     00A7  082F               	movf	??___fldiv+1,w
  2748     00A8  00B1               	movwf	??___fldiv+3
  2749     00A9  083F               	movf	___fldiv@aexp,w
  2750     00AA  022E               	subwf	??___fldiv,w
  2751     00AB  00B0               	movwf	??___fldiv+2
  2752     00AC  1C03               	skipc
  2753     00AD  03B1               	decf	??___fldiv+3,f
  2754     00AE  0830               	movf	??___fldiv+2,w
  2755     00AF  3E7F               	addlw	127
  2756     00B0  00B8               	movwf	___fldiv@new_exp
  2757     00B1  3000               	movlw	0
  2758     00B2  3D31               	addwfc	??___fldiv+3,w
  2759     00B3  00B9               	movwf	___fldiv@new_exp+1
  2760     00B4                     l1248:
  2761     00B4  082D               	movf	___fldiv@b+3,w
  2762     00B5  00B6               	movwf	___fldiv@rem+3
  2763     00B6  082C               	movf	___fldiv@b+2,w
  2764     00B7  00B5               	movwf	___fldiv@rem+2
  2765     00B8  082B               	movf	___fldiv@b+1,w
  2766     00B9  00B4               	movwf	___fldiv@rem+1
  2767     00BA  082A               	movf	___fldiv@b,w
  2768     00BB  00B3               	movwf	___fldiv@rem
  2769     00BC                     l1250:
  2770     00BC  3000               	movlw	0
  2771     00BD  00AD               	movwf	___fldiv@b+3
  2772     00BE  3000               	movlw	0
  2773     00BF  00AC               	movwf	___fldiv@b+2
  2774     00C0  3000               	movlw	0
  2775     00C1  00AB               	movwf	___fldiv@b+1
  2776     00C2  3000               	movlw	0
  2777     00C3  00AA               	movwf	___fldiv@b
  2778     00C4                     l1252:
  2779     00C4  3000               	movlw	0
  2780     00C5  00BD               	movwf	___fldiv@grs+3
  2781     00C6  3000               	movlw	0
  2782     00C7  00BC               	movwf	___fldiv@grs+2
  2783     00C8  3000               	movlw	0
  2784     00C9  00BB               	movwf	___fldiv@grs+1
  2785     00CA  3000               	movlw	0
  2786     00CB  00BA               	movwf	___fldiv@grs
  2787     00CC                     l1254:
  2788     00CC  01BF               	clrf	___fldiv@aexp
  2789     00CD  290C               	goto	l1274
  2790     00CE                     l1256:
  2791     00CE  083F               	movf	___fldiv@aexp,w
  2792     00CF  1903               	btfsc	3,2
  2793     00D0  28D2               	goto	u1131
  2794     00D1  28D3               	goto	u1130
  2795     00D2                     u1131:
  2796     00D2  28ED               	goto	l1266
  2797     00D3                     u1130:
  2798     00D3                     l1258:
  2799     00D3  3001               	movlw	1
  2800     00D4                     u1145:
  2801     00D4  35B3               	lslf	___fldiv@rem,f
  2802     00D5  0DB4               	rlf	___fldiv@rem+1,f
  2803     00D6  0DB5               	rlf	___fldiv@rem+2,f
  2804     00D7  0DB6               	rlf	___fldiv@rem+3,f
  2805     00D8  0B89               	decfsz	9,f
  2806     00D9  28D4               	goto	u1145
  2807     00DA  3001               	movlw	1
  2808     00DB                     u1155:
  2809     00DB  35AA               	lslf	___fldiv@b,f
  2810     00DC  0DAB               	rlf	___fldiv@b+1,f
  2811     00DD  0DAC               	rlf	___fldiv@b+2,f
  2812     00DE  0DAD               	rlf	___fldiv@b+3,f
  2813     00DF  0B89               	decfsz	9,f
  2814     00E0  28DB               	goto	u1155
  2815     00E1                     l1260:
  2816     00E1  1FBD               	btfss	___fldiv@grs+3,7
  2817     00E2  28E4               	goto	u1161
  2818     00E3  28E5               	goto	u1160
  2819     00E4                     u1161:
  2820     00E4  28E6               	goto	l1264
  2821     00E5                     u1160:
  2822     00E5                     l1262:
  2823     00E5  142A               	bsf	___fldiv@b,0
  2824     00E6                     l1264:
  2825     00E6  3001               	movlw	1
  2826     00E7                     u1175:
  2827     00E7  35BA               	lslf	___fldiv@grs,f
  2828     00E8  0DBB               	rlf	___fldiv@grs+1,f
  2829     00E9  0DBC               	rlf	___fldiv@grs+2,f
  2830     00EA  0DBD               	rlf	___fldiv@grs+3,f
  2831     00EB  0B89               	decfsz	9,f
  2832     00EC  28E7               	goto	u1175
  2833     00ED                     l1266:
  2834     00ED  0829               	movf	___fldiv@a+3,w
  2835     00EE  0236               	subwf	___fldiv@rem+3,w
  2836     00EF  1D03               	skipz
  2837     00F0  28FB               	goto	u1185
  2838     00F1  0828               	movf	___fldiv@a+2,w
  2839     00F2  0235               	subwf	___fldiv@rem+2,w
  2840     00F3  1D03               	skipz
  2841     00F4  28FB               	goto	u1185
  2842     00F5  0827               	movf	___fldiv@a+1,w
  2843     00F6  0234               	subwf	___fldiv@rem+1,w
  2844     00F7  1D03               	skipz
  2845     00F8  28FB               	goto	u1185
  2846     00F9  0826               	movf	___fldiv@a,w
  2847     00FA  0233               	subwf	___fldiv@rem,w
  2848     00FB                     u1185:
  2849     00FB  1C03               	skipc
  2850     00FC  28FE               	goto	u1181
  2851     00FD  28FF               	goto	u1180
  2852     00FE                     u1181:
  2853     00FE  2908               	goto	l1272
  2854     00FF                     u1180:
  2855     00FF                     l1268:
  2856     00FF  173D               	bsf	___fldiv@grs+3,6
  2857     0100                     l1270:
  2858     0100  0826               	movf	___fldiv@a,w
  2859     0101  02B3               	subwf	___fldiv@rem,f
  2860     0102  0827               	movf	___fldiv@a+1,w
  2861     0103  3BB4               	subwfb	___fldiv@rem+1,f
  2862     0104  0828               	movf	___fldiv@a+2,w
  2863     0105  3BB5               	subwfb	___fldiv@rem+2,f
  2864     0106  0829               	movf	___fldiv@a+3,w
  2865     0107  3BB6               	subwfb	___fldiv@rem+3,f
  2866     0108                     l1272:
  2867     0108  3001               	movlw	1
  2868     0109  00AE               	movwf	??___fldiv
  2869     010A  082E               	movf	??___fldiv,w
  2870     010B  07BF               	addwf	___fldiv@aexp,f
  2871     010C                     l1274:
  2872     010C  301A               	movlw	26
  2873     010D  023F               	subwf	___fldiv@aexp,w
  2874     010E  1C03               	skipc
  2875     010F  2911               	goto	u1191
  2876     0110  2912               	goto	u1190
  2877     0111                     u1191:
  2878     0111  28CE               	goto	l1256
  2879     0112                     u1190:
  2880     0112                     l1276:
  2881     0112  0836               	movf	___fldiv@rem+3,w
  2882     0113  0435               	iorwf	___fldiv@rem+2,w
  2883     0114  0434               	iorwf	___fldiv@rem+1,w
  2884     0115  0433               	iorwf	___fldiv@rem,w
  2885     0116  1903               	skipnz
  2886     0117  2919               	goto	u1201
  2887     0118  291A               	goto	u1200
  2888     0119                     u1201:
  2889     0119  2933               	goto	l1290
  2890     011A                     u1200:
  2891     011A                     l1278:
  2892     011A  143A               	bsf	___fldiv@grs,0
  2893     011B  2933               	goto	l1290
  2894     011C                     l1280:
  2895     011C  3001               	movlw	1
  2896     011D                     u1215:
  2897     011D  35AA               	lslf	___fldiv@b,f
  2898     011E  0DAB               	rlf	___fldiv@b+1,f
  2899     011F  0DAC               	rlf	___fldiv@b+2,f
  2900     0120  0DAD               	rlf	___fldiv@b+3,f
  2901     0121  0B89               	decfsz	9,f
  2902     0122  291D               	goto	u1215
  2903     0123                     l1282:
  2904     0123  1FBD               	btfss	___fldiv@grs+3,7
  2905     0124  2926               	goto	u1221
  2906     0125  2927               	goto	u1220
  2907     0126                     u1221:
  2908     0126  2928               	goto	l1286
  2909     0127                     u1220:
  2910     0127                     l1284:
  2911     0127  142A               	bsf	___fldiv@b,0
  2912     0128                     l1286:
  2913     0128  3001               	movlw	1
  2914     0129                     u1235:
  2915     0129  35BA               	lslf	___fldiv@grs,f
  2916     012A  0DBB               	rlf	___fldiv@grs+1,f
  2917     012B  0DBC               	rlf	___fldiv@grs+2,f
  2918     012C  0DBD               	rlf	___fldiv@grs+3,f
  2919     012D  0B89               	decfsz	9,f
  2920     012E  2929               	goto	u1235
  2921     012F                     l1288:
  2922     012F  30FF               	movlw	255
  2923     0130  07B8               	addwf	___fldiv@new_exp,f
  2924     0131  30FF               	movlw	255
  2925     0132  3DB9               	addwfc	___fldiv@new_exp+1,f
  2926     0133                     l1290:
  2927     0133  1FAC               	btfss	___fldiv@b+2,7
  2928     0134  2936               	goto	u1241
  2929     0135  2937               	goto	u1240
  2930     0136                     u1241:
  2931     0136  291C               	goto	l1280
  2932     0137                     u1240:
  2933     0137                     l1292:
  2934     0137  01BF               	clrf	___fldiv@aexp
  2935     0138                     l1294:
  2936     0138  1FBD               	btfss	___fldiv@grs+3,7
  2937     0139  293B               	goto	u1251
  2938     013A  293C               	goto	u1250
  2939     013B                     u1251:
  2940     013B  2958               	goto	l1302
  2941     013C                     u1250:
  2942     013C                     l1296:
  2943     013C  30FF               	movlw	255
  2944     013D  053A               	andwf	___fldiv@grs,w
  2945     013E  00AE               	movwf	??___fldiv
  2946     013F  30FF               	movlw	255
  2947     0140  053B               	andwf	___fldiv@grs+1,w
  2948     0141  00AF               	movwf	??___fldiv+1
  2949     0142  30FF               	movlw	255
  2950     0143  053C               	andwf	___fldiv@grs+2,w
  2951     0144  00B0               	movwf	??___fldiv+2
  2952     0145  307F               	movlw	127
  2953     0146  053D               	andwf	___fldiv@grs+3,w
  2954     0147  00B1               	movwf	??___fldiv+3
  2955     0148  0831               	movf	??___fldiv+3,w
  2956     0149  0430               	iorwf	??___fldiv+2,w
  2957     014A  042F               	iorwf	??___fldiv+1,w
  2958     014B  042E               	iorwf	??___fldiv,w
  2959     014C  1903               	skipnz
  2960     014D  294F               	goto	u1261
  2961     014E  2950               	goto	u1260
  2962     014F                     u1261:
  2963     014F  2953               	goto	l607
  2964     0150                     u1260:
  2965     0150                     l1298:
  2966     0150  01BF               	clrf	___fldiv@aexp
  2967     0151  0ABF               	incf	___fldiv@aexp,f
  2968     0152  2958               	goto	l1302
  2969     0153                     l607:
  2970     0153  1C2A               	btfss	___fldiv@b,0
  2971     0154  2956               	goto	u1271
  2972     0155  2957               	goto	u1270
  2973     0156                     u1271:
  2974     0156  2958               	goto	l1302
  2975     0157                     u1270:
  2976     0157  2950               	goto	l1298
  2977     0158                     l1302:
  2978     0158  083F               	movf	___fldiv@aexp,w
  2979     0159  1903               	btfsc	3,2
  2980     015A  295C               	goto	u1281
  2981     015B  295D               	goto	u1280
  2982     015C                     u1281:
  2983     015C  2985               	goto	l1312
  2984     015D                     u1280:
  2985     015D                     l1304:
  2986     015D  3001               	movlw	1
  2987     015E  07AA               	addwf	___fldiv@b,f
  2988     015F  3000               	movlw	0
  2989     0160  3DAB               	addwfc	___fldiv@b+1,f
  2990     0161  3000               	movlw	0
  2991     0162  3DAC               	addwfc	___fldiv@b+2,f
  2992     0163  3000               	movlw	0
  2993     0164  3DAD               	addwfc	___fldiv@b+3,f
  2994     0165                     l1306:
  2995     0165  1C2D               	btfss	___fldiv@b+3,0
  2996     0166  2968               	goto	u1291
  2997     0167  2969               	goto	u1290
  2998     0168                     u1291:
  2999     0168  2985               	goto	l1312
  3000     0169                     u1290:
  3001     0169                     l1308:
  3002     0169  082A               	movf	___fldiv@b,w
  3003     016A  00AE               	movwf	??___fldiv
  3004     016B  082B               	movf	___fldiv@b+1,w
  3005     016C  00AF               	movwf	??___fldiv+1
  3006     016D  082C               	movf	___fldiv@b+2,w
  3007     016E  00B0               	movwf	??___fldiv+2
  3008     016F  082D               	movf	___fldiv@b+3,w
  3009     0170  00B1               	movwf	??___fldiv+3
  3010     0171  3001               	movlw	1
  3011     0172  00B2               	movwf	??___fldiv+4
  3012     0173                     u1305:
  3013     0173  37B1               	asrf	??___fldiv+3,f
  3014     0174  0CB0               	rrf	??___fldiv+2,f
  3015     0175  0CAF               	rrf	??___fldiv+1,f
  3016     0176  0CAE               	rrf	??___fldiv,f
  3017     0177                     u1300:
  3018     0177  0BB2               	decfsz	??___fldiv+4,f
  3019     0178  2973               	goto	u1305
  3020     0179  0831               	movf	??___fldiv+3,w
  3021     017A  00AD               	movwf	___fldiv@b+3
  3022     017B  0830               	movf	??___fldiv+2,w
  3023     017C  00AC               	movwf	___fldiv@b+2
  3024     017D  082F               	movf	??___fldiv+1,w
  3025     017E  00AB               	movwf	___fldiv@b+1
  3026     017F  082E               	movf	??___fldiv,w
  3027     0180  00AA               	movwf	___fldiv@b
  3028     0181                     l1310:
  3029     0181  3001               	movlw	1
  3030     0182  07B8               	addwf	___fldiv@new_exp,f
  3031     0183  3000               	movlw	0
  3032     0184  3DB9               	addwfc	___fldiv@new_exp+1,f
  3033     0185                     l1312:
  3034     0185  0839               	movf	___fldiv@new_exp+1,w
  3035     0186  3A80               	xorlw	128
  3036     0187  00AE               	movwf	??___fldiv
  3037     0188  3080               	movlw	128
  3038     0189  022E               	subwf	??___fldiv,w
  3039     018A  1D03               	skipz
  3040     018B  298E               	goto	u1315
  3041     018C  30FF               	movlw	255
  3042     018D  0238               	subwf	___fldiv@new_exp,w
  3043     018E                     u1315:
  3044     018E  1C03               	skipc
  3045     018F  2991               	goto	u1311
  3046     0190  2992               	goto	u1310
  3047     0191                     u1311:
  3048     0191  299F               	goto	l612
  3049     0192                     u1310:
  3050     0192                     l1314:
  3051     0192  30FF               	movlw	255
  3052     0193  0020               	movlb	0	; select bank0
  3053     0194  00B8               	movwf	___fldiv@new_exp
  3054     0195  3000               	movlw	0
  3055     0196  00B9               	movwf	___fldiv@new_exp+1
  3056     0197  3000               	movlw	0
  3057     0198  00AD               	movwf	___fldiv@b+3
  3058     0199  3000               	movlw	0
  3059     019A  00AC               	movwf	___fldiv@b+2
  3060     019B  3000               	movlw	0
  3061     019C  00AB               	movwf	___fldiv@b+1
  3062     019D  3000               	movlw	0
  3063     019E  00AA               	movwf	___fldiv@b
  3064     019F                     l612:
  3065     019F  0020               	movlb	0	; select bank0
  3066     01A0  0839               	movf	___fldiv@new_exp+1,w
  3067     01A1  3A80               	xorlw	128
  3068     01A2  00AE               	movwf	??___fldiv
  3069     01A3  3080               	movlw	128
  3070     01A4  022E               	subwf	??___fldiv,w
  3071     01A5  1D03               	skipz
  3072     01A6  29A9               	goto	u1325
  3073     01A7  3001               	movlw	1
  3074     01A8  0238               	subwf	___fldiv@new_exp,w
  3075     01A9                     u1325:
  3076     01A9  1803               	skipnc
  3077     01AA  29AC               	goto	u1321
  3078     01AB  29AD               	goto	u1320
  3079     01AC                     u1321:
  3080     01AC  29B9               	goto	l613
  3081     01AD                     u1320:
  3082     01AD                     l1316:
  3083     01AD  0020               	movlb	0	; select bank0
  3084     01AE  01B8               	clrf	___fldiv@new_exp
  3085     01AF  01B9               	clrf	___fldiv@new_exp+1
  3086     01B0                     l1318:
  3087     01B0  3000               	movlw	0
  3088     01B1  00AD               	movwf	___fldiv@b+3
  3089     01B2  3000               	movlw	0
  3090     01B3  00AC               	movwf	___fldiv@b+2
  3091     01B4  3000               	movlw	0
  3092     01B5  00AB               	movwf	___fldiv@b+1
  3093     01B6  3000               	movlw	0
  3094     01B7  00AA               	movwf	___fldiv@b
  3095     01B8                     l1320:
  3096     01B8  01B7               	clrf	___fldiv@sign
  3097     01B9                     l613:
  3098     01B9  0020               	movlb	0	; select bank0
  3099     01BA  0838               	movf	___fldiv@new_exp,w
  3100     01BB  00BE               	movwf	___fldiv@bexp
  3101     01BC                     l1322:
  3102     01BC  1C3E               	btfss	___fldiv@bexp,0
  3103     01BD  29BF               	goto	u1331
  3104     01BE  29C0               	goto	u1330
  3105     01BF                     u1331:
  3106     01BF  29C2               	goto	l1326
  3107     01C0                     u1330:
  3108     01C0                     l1324:
  3109     01C0  17AC               	bsf	___fldiv@b+2,7
  3110     01C1  29C6               	goto	l615
  3111     01C2                     l1326:
  3112     01C2  307F               	movlw	127
  3113     01C3  00AE               	movwf	??___fldiv
  3114     01C4  082E               	movf	??___fldiv,w
  3115     01C5  05AC               	andwf	___fldiv@b+2,f
  3116     01C6                     l615:
  3117     01C6  363E               	lsrf	___fldiv@bexp,w
  3118     01C7  00AD               	movwf	___fldiv@b+3
  3119     01C8  0837               	movf	___fldiv@sign,w
  3120     01C9  00AE               	movwf	??___fldiv
  3121     01CA  082E               	movf	??___fldiv,w
  3122     01CB  04AD               	iorwf	___fldiv@b+3,f
  3123     01CC  288D               	goto	l1236
  3124     01CD                     l593:
  3125     01CD  0008               	return
  3126     01CE                     __end_of___fldiv:
  3127                           
  3128                           	psect	intentry
  3129     0004                     __pintentry:	
  3130 ;; *************** function _ISR *****************
  3131 ;; Defined at:
  3132 ;;		line 92 in file "lab6_C.c"
  3133 ;; Parameters:    Size  Location     Type
  3134 ;;		None
  3135 ;; Auto vars:     Size  Location     Type
  3136 ;;		None
  3137 ;; Return value:  Size  Location     Type
  3138 ;;                  1    wreg      void 
  3139 ;; Registers used:
  3140 ;;		wreg, fsr1l, fsr1h, status,2, status,0, pclath, cstack
  3141 ;; Tracked objects:
  3142 ;;		On entry : 0/0
  3143 ;;		On exit  : 0/0
  3144 ;;		Unchanged: 0/0
  3145 ;; Data sizes:     COMMON   BANK0   BANK1   BANK2   BANK3   BANK4   BANK5   BANK6
  3146 ;;      Params:         0       0       0       0       0       0       0       0
  3147 ;;      Locals:         0       0       0       0       0       0       0       0
  3148 ;;      Temps:          0       0       0       0       0       0       0       0
  3149 ;;      Totals:         0       0       0       0       0       0       0       0
  3150 ;;Total ram usage:        0 bytes
  3151 ;; Hardware stack levels used: 1
  3152 ;; Hardware stack levels required when called: 1
  3153 ;; This function calls:
  3154 ;;		_scan_LED
  3155 ;; This function is called by:
  3156 ;;		Interrupt level 1
  3157 ;; This function uses a non-reentrant model
  3158 ;;
  3159                           
  3160     0004                     _ISR:
  3161                           
  3162                           ;incstack = 0
  3163     0004  147E               	bsf	int$flags,0	;set compiler interrupt flag (level 1)
  3164                           
  3165                           ; Regs used in _ISR: [wreg+fsr1l+fsr1h+status,2+status,0+pclath+cstack]
  3166     0005  3180               	pagesel	$
  3167     0006                     i1l1376:
  3168                           
  3169                           ;lab6_C.c: 93:         for(int i=0; i<10000; ++i);
  3170     0006  002E               	movlb	14	; select bank14
  3171     0007  128C               	bcf	12,5	;volatile
  3172     0008                     i1l1378:
  3173                           
  3174                           ;lab6_C.c: 94:     };
  3175     0008  3184  24A3  3180   	fcall	_scan_LED
  3176     000B                     i1l72:
  3177     000B  107E               	bcf	int$flags,0	;clear compiler interrupt flag (level 1)
  3178     000C  0009               	retfie
  3179     000D                     __end_of_ISR:
  3180                           
  3181                           	psect	text8
  3182     04A3                     __ptext8:	
  3183 ;; *************** function _scan_LED *****************
  3184 ;; Defined at:
  3185 ;;		line 70 in file "lab6_C.c"
  3186 ;; Parameters:    Size  Location     Type
  3187 ;;		None
  3188 ;; Auto vars:     Size  Location     Type
  3189 ;;		None
  3190 ;; Return value:  Size  Location     Type
  3191 ;;                  1    wreg      void 
  3192 ;; Registers used:
  3193 ;;		wreg, fsr1l, fsr1h, status,2, status,0
  3194 ;; Tracked objects:
  3195 ;;		On entry : 0/0
  3196 ;;		On exit  : 0/0
  3197 ;;		Unchanged: 0/0
  3198 ;; Data sizes:     COMMON   BANK0   BANK1   BANK2   BANK3   BANK4   BANK5   BANK6
  3199 ;;      Params:         0       0       0       0       0       0       0       0
  3200 ;;      Locals:         0       0       0       0       0       0       0       0
  3201 ;;      Temps:          1       0       0       0       0       0       0       0
  3202 ;;      Totals:         1       0       0       0       0       0       0       0
  3203 ;;Total ram usage:        1 bytes
  3204 ;; Hardware stack levels used: 1
  3205 ;; This function calls:
  3206 ;;		Nothing
  3207 ;; This function is called by:
  3208 ;;		_ISR
  3209 ;; This function uses a non-reentrant model
  3210 ;;
  3211                           
  3212     04A3                     _scan_LED:	
  3213                           ;psect for function _scan_LED
  3214                           
  3215     04A3                     i1l1140:	
  3216                           ;incstack = 0
  3217                           ; Regs used in _scan_LED: [wreg+fsr1l+fsr1h+status,2+status,0]
  3218                           
  3219                           
  3220                           ;lab6_C.c: 74: 
  3221     04A3  087B               	movf	_idx,w
  3222     04A4  3E51               	addlw	(low (_segBuf| 0))& (0+255)
  3223     04A5  0086               	movwf	6
  3224     04A6  0187               	clrf	7
  3225     04A7  0801               	movf	1,w
  3226     04A8  0020               	movlb	0	; select bank0
  3227     04A9  008C               	movwf	12	;volatile
  3228     04AA                     i1l1142:
  3229                           
  3230                           ;lab6_C.c: 75:     T0CON0 = 0b10000000;
  3231     04AA  0855               	movf	_posCode,w
  3232     04AB  008E               	movwf	14	;volatile
  3233     04AC                     i1l1144:
  3234                           
  3235                           ;lab6_C.c: 76:     T0CON1 = 0b01000010;
  3236     04AC  3655               	lsrf	_posCode,w
  3237     04AD  00D5               	movwf	_posCode
  3238     04AE                     i1l1146:
  3239                           
  3240                           ;lab6_C.c: 77: 
  3241     04AE  3001               	movlw	1
  3242     04AF  00F0               	movwf	??_scan_LED
  3243     04B0  0870               	movf	??_scan_LED,w
  3244     04B1  07FB               	addwf	_idx,f
  3245     04B2                     i1l1148:
  3246                           
  3247                           ;lab6_C.c: 78:     ADCON0 = 0x84;
  3248     04B2  3004               	movlw	4
  3249     04B3  067B               	xorwf	_idx,w
  3250     04B4  1D03               	btfss	3,2
  3251     04B5  2CB7               	goto	u94_21
  3252     04B6  2CB8               	goto	u94_20
  3253     04B7                     u94_21:
  3254     04B7  2CBB               	goto	i1l64
  3255     04B8                     u94_20:
  3256     04B8                     i1l1150:
  3257                           
  3258                           ;lab6_C.c: 79:     ADPCH = 0xff;
  3259     04B8  30F7               	movlw	247
  3260     04B9  00D5               	movwf	_posCode
  3261     04BA                     i1l1152:
  3262                           
  3263                           ;lab6_C.c: 80:     ADREF = 0x00;
  3264     04BA  01FB               	clrf	_idx
  3265     04BB                     i1l64:
  3266     04BB  0008               	return
  3267     04BC                     __end_of_scan_LED:
  3268     007E                     btemp	set	126	;btemp
  3269     007E                     int$flags	set	126
  3270     007E                     wtemp0	set	126
  3271                           
  3272                           	psect	config
  3273                           
  3274                           ;Config register CONFIG1 @ 0x8007
  3275                           ;	External Oscillator mode selection bits
  3276                           ;	FEXTOSC = OFF, Oscillator not enabled
  3277                           ;	Power-up default value for COSC bits
  3278                           ;	RSTOSC = HFINT1, HFINTOSC (1MHz)
  3279                           ;	Clock Out Enable bit
  3280                           ;	CLKOUTEN = OFF, CLKOUT function is disabled; i/o or oscillator function on OSC2
  3281                           ;	Clock Switch Enable bit
  3282                           ;	CSWEN = ON, Writing to NOSC and NDIV is allowed
  3283                           ;	Fail-Safe Clock Monitor Enable bit
  3284                           ;	FCMEN = OFF, FSCM timer disabled
  3285     8007                     	org	32775
  3286     8007  1FEC               	dw	8172
  3287                           
  3288                           ;Config register CONFIG2 @ 0x8008
  3289                           ;	Master Clear Enable bit
  3290                           ;	MCLRE = ON, MCLR pin is Master Clear function
  3291                           ;	Power-up Timer Enable bit
  3292                           ;	PWRTE = OFF, PWRT disabled
  3293                           ;	Low-Power BOR enable bit
  3294                           ;	LPBOREN = OFF, ULPBOR disabled
  3295                           ;	Brown-out reset enable bits
  3296                           ;	BOREN = ON, Brown-out Reset Enabled, SBOREN bit is ignored
  3297                           ;	Brown-out Reset Voltage Selection
  3298                           ;	BORV = LO, Brown-out Reset Voltage (VBOR) set to 1.9V on LF, and 2.45V on F Devices
  3299                           ;	Zero-cross detect disable
  3300                           ;	ZCD = OFF, Zero-cross detect circuit is disabled at POR.
  3301                           ;	Peripheral Pin Select one-way control
  3302                           ;	PPS1WAY = OFF, The PPSLOCK bit can be set and cleared repeatedly by software
  3303                           ;	Stack Overflow/Underflow Reset Enable bit
  3304                           ;	STVREN = ON, Stack Overflow or Underflow will cause a reset
  3305                           ;	Background Debugger
  3306                           ;	DEBUG = 0x1, unprogrammed default
  3307     8008                     	org	32776
  3308     8008  37FF               	dw	14335
  3309                           
  3310                           ;Config register CONFIG3 @ 0x8009
  3311                           ;	WDT Period Select bits
  3312                           ;	WDTCPS = WDTCPS_31, Divider ratio 1:65536; software control of WDTPS
  3313                           ;	WDT operating mode
  3314                           ;	WDTE = OFF, WDT Disabled, SWDTEN is ignored
  3315                           ;	WDT Window Select bits
  3316                           ;	WDTCWS = WDTCWS_7, window always open (100%); software control; keyed access not requi
      +                          red
  3317                           ;	WDT input clock selector
  3318                           ;	WDTCCS = SC, Software Control
  3319     8009                     	org	32777
  3320     8009  3F9F               	dw	16287
  3321                           
  3322                           ;Config register CONFIG4 @ 0x800A
  3323                           ;	UserNVM self-write protection bits
  3324                           ;	WRT = WRT_upper, 0x0000 to 0x01FF write protected
  3325                           ;	Scanner Enable bit
  3326                           ;	SCANE = not_available, Scanner module is not available for use
  3327                           ;	Low Voltage Programming Enable bit
  3328                           ;	LVP = ON, Low Voltage programming enabled. MCLR/Vpp pin function is MCLR.
  3329     800A                     	org	32778
  3330     800A  2FFE               	dw	12286
  3331                           
  3332                           ;Config register CONFIG5 @ 0x800B
  3333                           ;	UserNVM Program memory code protection bit
  3334                           ;	CP = OFF, Program Memory code protection disabled
  3335                           ;	DataNVM code protection bit
  3336                           ;	CPD = OFF, Data EEPROM code protection disabled
  3337     800B                     	org	32779
  3338     800B  3FFF               	dw	16383

Data Sizes:
    Strings     0
    Constant    11
    Data        5
    BSS         3
    Persistent  36
    Stack       0

Auto Spaces:
    Space          Size  Autos    Used
    COMMON           14     11      12
    BANK0            80     49      60
    BANK1            80      0       0
    BANK2            80      0       0
    BANK3            80      0       0
    BANK4            80      0       0
    BANK5            80      0       0
    BANK6            16      0       0

Pointer List with Targets:

    None.

Critical Paths under _main in COMMON

    _main->___fltol
    _div_num->___awmod
    ___awmod->___awdiv
    ___fltol->___xxtofl
    ___fldiv->___xxtofl

Critical Paths under _ISR in COMMON

    _ISR->_scan_LED

Critical Paths under _main in BANK0

    _main->___fltol
    _div_num->___awmod
    ___fltol->___fldiv
    ___fldiv->___xxtofl

Critical Paths under _ISR in BANK0

    None.

Critical Paths under _main in BANK1

    None.

Critical Paths under _ISR in BANK1

    None.

Critical Paths under _main in BANK2

    None.

Critical Paths under _ISR in BANK2

    None.

Critical Paths under _main in BANK3

    None.

Critical Paths under _ISR in BANK3

    None.

Critical Paths under _main in BANK4

    None.

Critical Paths under _ISR in BANK4

    None.

Critical Paths under _main in BANK5

    None.

Critical Paths under _ISR in BANK5

    None.

Critical Paths under _main in BANK6

    None.

Critical Paths under _ISR in BANK6

    None.

Call Graph Tables:

 ---------------------------------------------------------------------------------
 (Depth) Function   	        Calls       Base Space   Used Autos Params    Refs
 ---------------------------------------------------------------------------------
 (0) _main                                                 9     9      0    3963
                                             40 BANK0      9     9      0
                            ___fldiv
                            ___fltol
                           ___xxtofl
                            _div_num
 ---------------------------------------------------------------------------------
 (1) _div_num                                              0     0      0    1729
                            ___awdiv
                            ___awmod
 ---------------------------------------------------------------------------------
 (2) ___awmod                                              7     3      4     973
                                             10 COMMON     1     1      0
                                              0 BANK0      6     2      4
                            ___awdiv (ARG)
 ---------------------------------------------------------------------------------
 (2) ___awdiv                                              9     5      4     756
                                              1 COMMON     9     5      4
 ---------------------------------------------------------------------------------
 (1) ___xxtofl                                            14    10      4     398
                                              1 COMMON     8     4      4
                                              0 BANK0      6     6      0
 ---------------------------------------------------------------------------------
 (1) ___fltol                                             10     6      4     427
                                              9 COMMON     2     2      0
                                             32 BANK0      8     4      4
                            ___fldiv (ARG)
                           ___xxtofl (ARG)
 ---------------------------------------------------------------------------------
 (1) ___fldiv                                             26    18      8    1273
                                              6 BANK0     26    18      8
                           ___xxtofl (ARG)
 ---------------------------------------------------------------------------------
 Estimated maximum stack depth 2
 ---------------------------------------------------------------------------------
 (Depth) Function   	        Calls       Base Space   Used Autos Params    Refs
 ---------------------------------------------------------------------------------
 (3) _ISR                                                  0     0      0       0
                           _scan_LED
 ---------------------------------------------------------------------------------
 (4) _scan_LED                                             1     1      0       0
                                              0 COMMON     1     1      0
 ---------------------------------------------------------------------------------
 Estimated maximum stack depth 4
 ---------------------------------------------------------------------------------

 Call Graph Graphs:

 _main (ROOT)
   ___fldiv
     ___xxtofl (ARG)
   ___fltol
     ___fldiv (ARG)
     ___xxtofl (ARG)
   ___xxtofl
   _div_num
     ___awdiv
     ___awmod
       ___awdiv (ARG)

 _ISR (ROOT)
   _scan_LED

 Address spaces:
Name               Size   Autos  Total    Cost      Usage
BIGRAM             1F0      0       0       0        0.0%
EEDATA             100      0       0       0        0.0%
NULL                 0      0       0       0        0.0%
CODE                 0      0       0       0        0.0%
BITCOMMON            E      0       0       1        0.0%
BITSFR0              0      0       0       1        0.0%
SFR0                 0      0       0       1        0.0%
COMMON               E      B       C       2       85.7%
BITSFR1              0      0       0       2        0.0%
SFR1                 0      0       0       2        0.0%
BITSFR2              0      0       0       3        0.0%
SFR2                 0      0       0       3        0.0%
STACK                0      0       0       3        0.0%
BITSFR3              0      0       0       4        0.0%
SFR3                 0      0       0       4        0.0%
ABS                  0      0      48       4        0.0%
BITBANK0            50      0       0       5        0.0%
BITSFR4              0      0       0       5        0.0%
SFR4                 0      0       0       5        0.0%
BANK0               50     31      3C       6       75.0%
BITSFR5              0      0       0       6        0.0%
SFR5                 0      0       0       6        0.0%
BITBANK1            50      0       0       7        0.0%
BITSFR6              0      0       0       7        0.0%
SFR6                 0      0       0       7        0.0%
BANK1               50      0       0       8        0.0%
BITSFR7              0      0       0       8        0.0%
SFR7                 0      0       0       8        0.0%
BITBANK2            50      0       0       9        0.0%
BITSFR8              0      0       0       9        0.0%
SFR8                 0      0       0       9        0.0%
BANK2               50      0       0      10        0.0%
BITSFR9              0      0       0      10        0.0%
SFR9                 0      0       0      10        0.0%
BITBANK3            50      0       0      11        0.0%
BITSFR10             0      0       0      11        0.0%
SFR10                0      0       0      11        0.0%
BANK3               50      0       0      12        0.0%
BITSFR11             0      0       0      12        0.0%
SFR11                0      0       0      12        0.0%
BITBANK4            50      0       0      13        0.0%
BITSFR12             0      0       0      13        0.0%
SFR12                0      0       0      13        0.0%
BANK4               50      0       0      14        0.0%
BITSFR13             0      0       0      14        0.0%
SFR13                0      0       0      14        0.0%
BITBANK5            50      0       0      15        0.0%
BITSFR14             0      0       0      15        0.0%
SFR14                0      0       0      15        0.0%
BANK5               50      0       0      16        0.0%
BITSFR15             0      0       0      16        0.0%
SFR15                0      0       0      16        0.0%
BITBANK6            10      0       0      17        0.0%
BITSFR16             0      0       0      17        0.0%
SFR16                0      0       0      17        0.0%
BANK6               10      0       0      18        0.0%
BITSFR17             0      0       0      18        0.0%
SFR17                0      0       0      18        0.0%
BITSFR18             0      0       0      19        0.0%
SFR18                0      0       0      19        0.0%
DATA                 0      0      48      19        0.0%
BITSFR19             0      0       0      20        0.0%
SFR19                0      0       0      20        0.0%
BITSFR20             0      0       0      21        0.0%
SFR20                0      0       0      21        0.0%
BITSFR21             0      0       0      22        0.0%
SFR21                0      0       0      22        0.0%
BITSFR22             0      0       0      23        0.0%
SFR22                0      0       0      23        0.0%
BITSFR23             0      0       0      24        0.0%
SFR23                0      0       0      24        0.0%
BITSFR24             0      0       0      25        0.0%
SFR24                0      0       0      25        0.0%
BITSFR25             0      0       0      26        0.0%
SFR25                0      0       0      26        0.0%
BITSFR26             0      0       0      27        0.0%
SFR26                0      0       0      27        0.0%
BITSFR27             0      0       0      28        0.0%
SFR27                0      0       0      28        0.0%
BITSFR28             0      0       0      29        0.0%
SFR28                0      0       0      29        0.0%
BITSFR29             0      0       0      30        0.0%
SFR29                0      0       0      30        0.0%
BITSFR30             0      0       0      31        0.0%
SFR30                0      0       0      31        0.0%
BITSFR31             0      0       0      32        0.0%
SFR31                0      0       0      32        0.0%


Microchip Technology PIC Macro Assembler V2.41 build 20230208172133 
Symbol Table                                                                                   Sun Jul 16 17:25:31 2023

           ___fldiv@aexp 003F             ___fldiv@bexp 003E             ___fldiv@sign 0037  
                     l67 03EF             ___awdiv@sign 0077                      l400 04A2  
                    l435 036C                      l612 019F                      l428 0381  
                    l613 01B9                      l438 0381                      l615 01C6  
                    l607 0153                      l387 044E                      l591 0075  
                    l593 01CD                      l681 022A                      l675 01F1  
                    l677 0278                      l688 0244                      l689 0250  
                    _ISR 0004                      u810 0430                      u811 042F  
                    u805 0422                      u830 0440                      u750 03F5  
                    u831 043F                      u815 042C                      u751 03F4  
                    u840 0445                      u760 0400                      u841 0444  
                    u825 0436                      u761 03FF                      u770 0411  
                    u771 0410                      u790 0421                      u791 0420  
                    u785 0415                      _idx 007B             ___awmod@sign 0025  
                    wreg 0009                     ?_ISR 0070             ___fltol@exp1 007A  
                   l1200 002F                     l1202 0034                     l1210 0044  
                   l1220 0058                     l1212 004C                     l1204 0039  
                   l1060 03F1                     l1310 0181                     l1302 0158  
                   l1222 005D                     l1230 006D                     l1214 0051  
                   l1206 0041                     l1070 0405                     l1062 03F5  
                   l1320 01B8                     l1304 015D                     l1312 0185  
                   l1232 007D                     l1240 0096                     l1224 0062  
                   l1216 0053                     l1208 0042                     l1080 0419  
                   l1072 0409                     l1064 03FA                     l1322 01BC  
                   l1314 0192                     l1306 0165                     l1250 00BC  
                   l1242 009B                     l1234 0089                     l1226 006A  
                   l1218 0057                     l1090 0435                     l1082 041D  
                   l1074 040B                     l1066 03FC                     l1058 03F0  
                   l1324 01C0                     l1316 01AD                     l1308 0169  
                   l1260 00E1                     l1252 00C4                     l1236 008D  
                   l1228 006B                     l1340 01F9                     l1332 01D0  
                   l1092 043A                     l1084 0421                     l1076 0411  
                   l1068 0400                     l1500 0279                     l1326 01C2  
                   l1318 01B0                     l1270 0100                     l1262 00E5  
                   l1254 00CC                     l1246 00A4                     l1350 0217  
                   l1334 01D5                     l1086 0430                     l1078 0414  
                   l1094 0440                     l1430 045A                     l1510 0291  
                   l1502 0280                     l1280 011C                     l1272 0108  
                   l1264 00E6                     l1256 00CE                     l1248 00B4  
                   l1192 0024                     l1360 023E                     l1352 021B  
                   l1344 0202                     l1336 01D9                     l1096 0445  
                   l1088 0434                     l1440 046E                     l1432 045C  
                   l1424 044F                     l1520 029F                     l1512 0294  
                   l1504 0283                     l1282 0123                     l1290 0133  
                   l1258 00D3                     l1266 00ED                     l1274 010C  
                   l1194 0028                     l1370 026F                     l1362 0248  
                   l1354 0223                     l1346 0205                     l1338 01E9  
                   l1098 044A                     l1450 0489                     l1442 0473  
                   l1434 0460                     l1426 0451                     l1530 02C4  
                   l1522 02A2                     l1514 0297                     l1506 028D  
                   l1292 0137                     l1284 0127                     l1276 0112  
                   l1268 00FF                     l1196 002A                     l1372 0270  
                   l1364 0252                     l1356 0231                     l1348 0210  
                   l1452 048E                     l1444 0477                     l1436 0465  
                   l1428 0455                     l1540 02FC                     l1532 02F6  
                   l1524 02AB                     l1516 029A                     l1508 028F  
                   l1294 0138                     l1286 0128                     l1278 011A  
                   l1198 002E                     l1470 0324                     l1366 0266  
                   l1358 023A                     l1446 047B                     l1438 046B  
                   l1454 0494                     l1462 0382                     l1534 02F9  
                   l1526 02B4                     l1518 029D                     l1296 013C  
                   l1288 012F                     l1480 0344                     l1472 0335  
                   l1464 0311                     l1368 026B                     l1456 0499  
                   l1448 0485                     l1528 02B6                     l1298 0150  
                   l1474 0336                     l1466 031B                     l1458 049E  
                   l1476 033E                     l1494 0363                     l1486 034C  
                   l1478 0340                     l1496 0371                     l1488 035C  
                   l1498 0376          __end_of_SEGMENT 04C7                     u1100 0062  
                   u1101 0061                     u1110 007D                     u1111 007C  
                   u1200 011A                     u1120 009B                     u1201 0119  
                   u1121 009A                     u1130 00D3                     u1050 002E  
                   u1131 00D2                     u1051 002D                     u1300 0177  
                   u1220 0127                     u1060 0034                     u1221 0126  
                   u1061 0033                     u1310 0192                     u1070 0039  
                   u1311 0191                     u1215 011D                     u1071 0038  
                   u1320 01AD                     u1240 0137                     u1160 00E5  
                   u1080 0057                     u1400 0230                     u1321 01AC  
                   u1305 0173                     u1241 0136                     u1161 00E4  
                   u1145 00D4                     u1081 0056                     u1401 022F  
                   u1330 01C0                     u1250 013C                     u1090 005D  
                   u1331 01BF                     u1315 018E                     u1251 013B  
                   u1235 0129                     u1155 00DB                     u1091 005C  
                   u1260 0150                     u1180 00FF                     u1420 023E  
                   u1340 01D5                     u1500 0460                     u1325 01A9  
                   u1261 014F                     u1181 00FE                     u1421 023D  
                   u1341 01D4                     u1501 045F                     _LATA 0016  
                   u1270 0157                     u1190 0112                     u1430 0244  
                   u1350 01D9                     u1510 046B                     u1271 0156  
                   u1191 0111                     u1175 00E7                     u1431 0243  
                   u1415 0234                     u1351 01D8                     u1511 046A  
                   _LATC 0018                     u1280 015D                     u1600 0344  
                   u1440 0248                     u1360 01F9                     u1281 015C  
                   u1185 00FB                     u1601 0343                     u1441 0247  
                   u1361 01F8                     u1290 0169                     u1610 034B  
                   u1450 025C                     u1530 047B                     u1291 0168  
                   u1611 034A                     u1531 047A                     u1460 026B  
                   u1380 0216                     u1540 0485                     u1461 026A  
                   u1381 0215                     u1541 0484                     u1525 046F  
                   u1630 035B                     u1470 026F                     u1631 035A  
                   u1471 026E                     u1455 0258                     u1375 020A  
                   u1640 0362                     u1560 0494                     u1641 0361  
                   u1625 034D                     u1561 0493                     u1545 0481  
                   u1570 0499                     u1490 0455                     u1395 0224  
                   u1571 0498                     u1555 048A                     u1491 0454  
                   u1660 0371                     u1580 031B                     u1661 0370  
                   u1581 031A                     u1670 0376                     u1590 0331  
                   _PIE0 0716                     u1671 0375                     u1655 0364  
                   u1680 030E                     u1681 030D                     u1595 032D  
                   u1685 030A                     i1l64 04BB                     i1l72 000B  
                   _WPUB 0F44                     _main 0279                     fsr0h 0005  
                   fsr1h 0007                     indf0 0000                     fsr0l 0004  
                   indf1 0001                     fsr1l 0006                     btemp 007E  
                   start 000D          ___fldiv@new_exp 0038                    ??_ISR 0071  
          ___fltol@sign1 0079                    ?_main 0070                    _ADPCH 009E  
        __end_of___fldiv 01CE                    _ADREF 009A          __end_of___awdiv 044F  
        __end_of___awmod 04A3          __end_of___fltol 0382          ___awdiv@divisor 0071  
        ___awdiv@counter 0076                    _PORTA 000C                    _PORTC 000E  
                  _TRISA 0011                    _TRISB 0012                    _TRISC 0013  
                  u94_20 04B8                    u94_21 04B7          __end_of_div_num 03F0  
                  main@i 004F                    status 0003                    wtemp0 007E  
        __initialization 000F             __end_of_main 0311                   ??_main 0048  
                 _ADCON0 0093                   _ADRESH 008D                   _ADRESL 008C  
       ___awdiv@dividend 0073                   _ADCres 0058                   _ANSELA 0F38  
                 _ANSELB 0F43                   _ANSELC 0F4E                   _T0CON0 001E  
                 _T0CON1 001F                   i1l1140 04A3                   i1l1150 04B8  
                 i1l1142 04AA                   i1l1152 04BA                   i1l1144 04AC  
                 i1l1146 04AE                   i1l1148 04B2                   i1l1376 0006  
                 i1l1378 0008                   _INTCON 000B                   _FVRCON 090C  
                 _INTPPS 0E90         __end_of___xxtofl 0279                ??___fldiv 002E  
              ??___awdiv 0075                ??___awmod 007A                ??___fltol 0044  
                 _segBuf 0051         __end_of_scan_LED 04BC         ___awdiv@quotient 0078  
        ___awmod@divisor 0020          ___awmod@counter 0024                ??_div_num 007B  
           ___xxtofl@arg 0022             ___xxtofl@exp 0021             ___xxtofl@val 0071  
__end_of__initialization 0020               ___fltol@f1 0040           __pcstackCOMMON 0070  
           __pidataBANK0 04C7               __pbssBANK0 005A               __pmaintext 0279  
             __pintentry 0004                ?___xxtofl 0071                  _SEGMENT 04BC  
              ?_scan_LED 0070                  ___fldiv 0024                  ___awdiv 03F0  
                ___awmod 044F                  ___fltol 0311                  __ptext1 0382  
                __ptext2 044F                  __ptext3 03F0                  __ptext4 01CE  
                __ptext5 0311                  __ptext6 0024                  __ptext8 04A3  
                _div_num 0382               ??___xxtofl 0075         ___awmod@dividend 0022  
                _posCode 0055                  _voltage 0056     end_of_initialization 0020  
             ??_scan_LED 0070            ___xxtofl@sign 0020              ___fldiv@grs 003A  
            ___fldiv@rem 0033               main@v_high 004B      start_initialization 000F  
            __end_of_ISR 000D              __pdataBANK0 0051                ___fldiv@a 0026  
              ___fldiv@b 002A              __pbssCOMMON 007B                ___latbits 0001  
          __pcstackBANK0 0020                __pnvBANK0 0056                 ?___fldiv 0026  
               ?___awdiv 0071                 ?___awmod 0020                 ?___fltol 0040  
               ?_div_num 0070                 _ADCcount 005A                 _PIR0bits 070C  
              main@v_low 004D                 ___xxtofl 01CE                 _scan_LED 04A3  
               int$flags 007E                 intlevel1 0000            __pstringtext1 04BC  
